; This file was automatically generated by Biohazrd and should not be modified by hand!
EXPORTS
    ??0NarrowPhaseParams@Gu@physx@@QEAA@MMM@Z
    ??0Px1DConstraintFlag@physx@@QEAA@XZ
    ??0PxActorShape@physx@@QEAA@PEAVPxRigidActor@1@PEAVPxShape@1@@Z
    ??0PxActorShape@physx@@QEAA@XZ
    ??0PxAllocInfo@physx@@QEAA@PEBDH0W4Enum@PxAllocId@1@@Z
    ??0PxAllocInfo@physx@@QEAA@XZ
    ??0PxArticulationCache@physx@@QEAA@XZ
    ??0PxBVHStructureDesc@physx@@QEAA@XZ
    ??0PxBatchQueryDesc@physx@@QEAA@III@Z
    ??0PxBatchQueryMemory@physx@@QEAA@III@Z
    ??0PxBoundedData@physx@@QEAA@XZ
    ??0PxBounds3@physx@@QEAA@AEBVPxVec3@1@0@Z
    ??0PxBounds3@physx@@QEAA@XZ
    ??0PxBoxControllerDesc@physx@@QEAA@AEBV01@@Z
    ??0PxBoxControllerDesc@physx@@QEAA@XZ
    ??0PxBoxGeometry@physx@@QEAA@MMM@Z
    ??0PxBoxGeometry@physx@@QEAA@VPxVec3@1@@Z
    ??0PxBoxGeometry@physx@@QEAA@XZ
    ??0PxBoxObstacle@physx@@QEAA@XZ
    ??0PxCache@physx@@QEAA@XZ
    ??0PxCapsuleControllerDesc@physx@@QEAA@AEBV01@@Z
    ??0PxCapsuleControllerDesc@physx@@QEAA@XZ
    ??0PxCapsuleGeometry@physx@@QEAA@MM@Z
    ??0PxCapsuleGeometry@physx@@QEAA@XZ
    ??0PxCapsuleObstacle@physx@@QEAA@XZ
    ??0PxConstraintInfo@physx@@QEAA@PEAVPxConstraint@1@PEAXI@Z
    ??0PxConstraintInfo@physx@@QEAA@XZ
    ??0PxConstraintInvMassScale@physx@@QEAA@MMMM@Z
    ??0PxConstraintInvMassScale@physx@@QEAA@XZ
    ??0PxContactPair@physx@@QEAA@XZ
    ??0PxContactPairExtraDataItem@physx@@QEAA@XZ
    ??0PxContactPairExtraDataIterator@physx@@QEAA@PEBEI@Z
    ??0PxContactPairHeader@physx@@QEAA@XZ
    ??0PxContactPairIndex@physx@@QEAA@XZ
    ??0PxContactPairPose@physx@@QEAA@XZ
    ??0PxContactPairVelocity@physx@@QEAA@XZ
    ??0PxContactStreamIterator@physx@@QEAA@PEBE0PEBIII@Z
    ??0PxControllerFilters@physx@@QEAA@PEBUPxFilterData@1@PEAVPxQueryFilterCallback@1@PEAVPxControllerFilterCallback@1@@Z
    ??0PxConvexMeshDesc@physx@@QEAA@XZ
    ??0PxConvexMeshGeometry@physx@@QEAA@PEAVPxConvexMesh@1@AEBVPxMeshScale@1@V?$PxFlags@W4Enum@PxConvexMeshGeometryFlag@physx@@E@1@@Z
    ??0PxConvexMeshGeometry@physx@@QEAA@XZ
    ??0PxCookingParams@physx@@QEAA@AEBVPxTolerancesScale@1@@Z
    ??0PxCudaBufferType@physx@@QEAA@AEBU01@@Z
    ??0PxCudaBufferType@physx@@QEAA@W4Enum@PxCudaBufferMemorySpace@1@W42PxCudaBufferFlags@1@@Z
    ??0PxCudaContextManagerDesc@physx@@QEAA@XZ
    ??0PxD6JointDrive@physx@@QEAA@MMM_N@Z
    ??0PxD6JointDrive@physx@@QEAA@XZ
    ??0PxDebugLine@physx@@QEAA@AEBVPxVec3@1@0AEBI@Z
    ??0PxDebugPoint@physx@@QEAA@AEBVPxVec3@1@AEBI@Z
    ??0PxDebugText@physx@@QEAA@AEBVPxVec3@1@AEBMAEBIPEBD@Z
    ??0PxDebugText@physx@@QEAA@XZ
    ??0PxDebugTriangle@physx@@QEAA@AEBVPxVec3@1@00AEBI@Z
    ??0PxDefaultErrorCallback@physx@@QEAA@XZ
    ??0PxDefaultFileInputData@physx@@QEAA@PEBD@Z
    ??0PxDefaultFileOutputStream@physx@@QEAA@PEBD@Z
    ??0PxDefaultMemoryInputData@physx@@QEAA@PEAEI@Z
    ??0PxDefaultMemoryOutputStream@physx@@QEAA@AEAVPxAllocatorCallback@1@@Z
    ??0PxDominanceGroupPair@physx@@QEAA@EE@Z
    ??0PxExtendedVec3@physx@@QEAA@NNN@Z
    ??0PxExtendedVec3@physx@@QEAA@XZ
    ??0PxFeatherstoneArticulationLinkData@immediate@physx@@QEAA@XZ
    ??0PxFilterData@physx@@QEAA@AEBU01@@Z
    ??0PxFilterData@physx@@QEAA@IIII@Z
    ??0PxFilterData@physx@@QEAA@W4PxEMPTY@1@@Z
    ??0PxFilterData@physx@@QEAA@XZ
    ??0PxGeometryHolder@physx@@QEAA@AEBVPxGeometry@1@@Z
    ??0PxGeometryHolder@physx@@QEAA@XZ
    ??0PxGroupsMask@physx@@QEAA@XZ
    ??0PxHeightFieldDesc@physx@@QEAA@XZ
    ??0PxHeightFieldGeometry@physx@@QEAA@PEAVPxHeightField@1@V?$PxFlags@W4Enum@PxMeshGeometryFlag@physx@@E@1@MMM@Z
    ??0PxHeightFieldGeometry@physx@@QEAA@XZ
    ??0PxJacobianRow@physx@@QEAA@AEBVPxVec3@1@000@Z
    ??0PxJacobianRow@physx@@QEAA@XZ
    ??0PxJointAngularLimitPair@physx@@QEAA@MMAEBVPxSpring@1@@Z
    ??0PxJointAngularLimitPair@physx@@QEAA@MMM@Z
    ??0PxJointLimitCone@physx@@QEAA@MMAEBVPxSpring@1@@Z
    ??0PxJointLimitCone@physx@@QEAA@MMM@Z
    ??0PxJointLimitParameters@physx@@QEAA@AEBV01@@Z
    ??0PxJointLimitParameters@physx@@QEAA@XZ
    ??0PxJointLimitPyramid@physx@@QEAA@MMMMAEBVPxSpring@1@@Z
    ??0PxJointLimitPyramid@physx@@QEAA@MMMMM@Z
    ??0PxJointLinearLimit@physx@@QEAA@AEBVPxTolerancesScale@1@MM@Z
    ??0PxJointLinearLimit@physx@@QEAA@MAEBVPxSpring@1@@Z
    ??0PxJointLinearLimitPair@physx@@QEAA@AEBVPxTolerancesScale@1@MMM@Z
    ??0PxJointLinearLimitPair@physx@@QEAA@MMAEBVPxSpring@1@@Z
    ??0PxLocationHit@physx@@QEAA@XZ
    ??0PxMassProperties@physx@@QEAA@AEBVPxGeometry@1@@Z
    ??0PxMassProperties@physx@@QEAA@MAEBVPxMat33@1@AEBVPxVec3@1@@Z
    ??0PxMassProperties@physx@@QEAA@XZ
    ??0PxMat33@physx@@QEAA@AEBV01@@Z
    ??0PxMat33@physx@@QEAA@AEBVPxQuat@1@@Z
    ??0PxMat33@physx@@QEAA@AEBVPxVec3@1@00@Z
    ??0PxMat33@physx@@QEAA@M@Z
    ??0PxMat33@physx@@QEAA@QEAM@Z
    ??0PxMat33@physx@@QEAA@W4PxIDENTITY@1@@Z
    ??0PxMat33@physx@@QEAA@W4PxZERO@1@@Z
    ??0PxMat33@physx@@QEAA@XZ
    ??0PxMat44@physx@@QEAA@AEBV01@@Z
    ??0PxMat44@physx@@QEAA@AEBVPxMat33@1@AEBVPxVec3@1@@Z
    ??0PxMat44@physx@@QEAA@AEBVPxQuat@1@@Z
    ??0PxMat44@physx@@QEAA@AEBVPxTransform@1@@Z
    ??0PxMat44@physx@@QEAA@AEBVPxVec3@1@000@Z
    ??0PxMat44@physx@@QEAA@AEBVPxVec4@1@000@Z
    ??0PxMat44@physx@@QEAA@AEBVPxVec4@1@@Z
    ??0PxMat44@physx@@QEAA@M@Z
    ??0PxMat44@physx@@QEAA@QEAM@Z
    ??0PxMat44@physx@@QEAA@W4PxIDENTITY@1@@Z
    ??0PxMat44@physx@@QEAA@W4PxZERO@1@@Z
    ??0PxMat44@physx@@QEAA@XZ
    ??0PxMeshOverlapUtil@physx@@QEAA@XZ
    ??0PxMeshScale@physx@@QEAA@AEBVPxVec3@1@@Z
    ??0PxMeshScale@physx@@QEAA@AEBVPxVec3@1@AEBVPxQuat@1@@Z
    ??0PxMeshScale@physx@@QEAA@M@Z
    ??0PxMeshScale@physx@@QEAA@XZ
    ??0PxMidphaseDesc@physx@@QEAA@XZ
    ??0PxPlane@physx@@QEAA@AEBVPxVec3@1@00@Z
    ??0PxPlane@physx@@QEAA@AEBVPxVec3@1@0@Z
    ??0PxPlane@physx@@QEAA@AEBVPxVec3@1@M@Z
    ??0PxPlane@physx@@QEAA@MMMM@Z
    ??0PxPlane@physx@@QEAA@XZ
    ??0PxPlaneGeometry@physx@@QEAA@XZ
    ??0PxProfileScoped@physx@@QEAA@PEAVPxProfilerCallback@1@PEBD_N_K@Z
    ??0PxQuat@physx@@QEAA@AEBV01@@Z
    ??0PxQuat@physx@@QEAA@AEBVPxMat33@1@@Z
    ??0PxQuat@physx@@QEAA@M@Z
    ??0PxQuat@physx@@QEAA@MAEBVPxVec3@1@@Z
    ??0PxQuat@physx@@QEAA@MMMM@Z
    ??0PxQuat@physx@@QEAA@W4PxIDENTITY@1@@Z
    ??0PxQuat@physx@@QEAA@XZ
    ??0PxQueryCache@physx@@QEAA@PEAVPxShape@1@I@Z
    ??0PxQueryCache@physx@@QEAA@XZ
    ??0PxQueryFilterData@physx@@QEAA@AEBUPxFilterData@1@V?$PxFlags@W4Enum@PxQueryFlag@physx@@G@1@@Z
    ??0PxQueryFilterData@physx@@QEAA@V?$PxFlags@W4Enum@PxQueryFlag@physx@@G@1@@Z
    ??0PxQueryFilterData@physx@@QEAA@XZ
    ??0PxQueryHit@physx@@QEAA@XZ
    ??0PxRaycastHit@physx@@QEAA@XZ
    ??0PxRepXInstantiationArgs@physx@@QEAA@AEAVPxPhysics@1@PEAVPxCooking@1@PEAVPxStringTable@1@@Z
    ??0PxRepXObject@physx@@QEAA@PEBDPEBX_K@Z
    ??0PxSceneDesc@physx@@QEAA@AEBVPxTolerancesScale@1@@Z
    ??0PxSceneLimits@physx@@QEAA@XZ
    ??0PxSceneReadLock@physx@@QEAA@AEAVPxScene@1@PEBDI@Z
    ??0PxSceneWriteLock@physx@@QEAA@AEAVPxScene@1@PEBDI@Z
    ??0PxScopedCudaLock@physx@@QEAA@AEAVPxCudaContextManager@1@@Z
    ??0PxSimpleTriangleMesh@physx@@QEAA@XZ
    ??0PxSimulationStatistics@physx@@QEAA@XZ
    ??0PxSolverBody@physx@@QEAA@XZ
    ??0PxSphereGeometry@physx@@QEAA@M@Z
    ??0PxSphereGeometry@physx@@QEAA@XZ
    ??0PxSpring@physx@@QEAA@MM@Z
    ??0PxStridedData@physx@@QEAA@XZ
    ??0PxSweepHit@physx@@QEAA@XZ
    ??0PxTolerancesScale@physx@@QEAA@XZ
    ??0PxTransform@physx@@QEAA@AEBVPxMat44@1@@Z
    ??0PxTransform@physx@@QEAA@AEBVPxQuat@1@@Z
    ??0PxTransform@physx@@QEAA@AEBVPxVec3@1@@Z
    ??0PxTransform@physx@@QEAA@AEBVPxVec3@1@AEBVPxQuat@1@@Z
    ??0PxTransform@physx@@QEAA@MMMVPxQuat@1@@Z
    ??0PxTransform@physx@@QEAA@W4PxIDENTITY@1@@Z
    ??0PxTransform@physx@@QEAA@XZ
    ??0PxTriangle@physx@@QEAA@AEBV01@@Z
    ??0PxTriangle@physx@@QEAA@AEBVPxVec3@1@00@Z
    ??0PxTriangle@physx@@QEAA@XZ
    ??0PxTriangleMeshDesc@physx@@QEAA@XZ
    ??0PxTriangleMeshGeometry@physx@@QEAA@PEAVPxTriangleMesh@1@AEBVPxMeshScale@1@V?$PxFlags@W4Enum@PxMeshGeometryFlag@physx@@E@1@@Z
    ??0PxTriangleMeshGeometry@physx@@QEAA@XZ
    ??0PxTriggerPair@physx@@QEAA@XZ
    ??0PxVec2@physx@@QEAA@AEBV01@@Z
    ??0PxVec2@physx@@QEAA@M@Z
    ??0PxVec2@physx@@QEAA@MM@Z
    ??0PxVec2@physx@@QEAA@W4PxZERO@1@@Z
    ??0PxVec2@physx@@QEAA@XZ
    ??0PxVec3@physx@@QEAA@AEBV01@@Z
    ??0PxVec3@physx@@QEAA@M@Z
    ??0PxVec3@physx@@QEAA@MMM@Z
    ??0PxVec3@physx@@QEAA@W4PxZERO@1@@Z
    ??0PxVec3@physx@@QEAA@XZ
    ??0PxVec4@physx@@QEAA@AEBV01@@Z
    ??0PxVec4@physx@@QEAA@AEBVPxVec3@1@M@Z
    ??0PxVec4@physx@@QEAA@M@Z
    ??0PxVec4@physx@@QEAA@MMMM@Z
    ??0PxVec4@physx@@QEAA@QEBM@Z
    ??0PxVec4@physx@@QEAA@W4PxZERO@1@@Z
    ??0PxVec4@physx@@QEAA@XZ
    ??0PxVehicleAckermannGeometryData@physx@@QEAA@W4PxEMPTY@1@@Z
    ??0PxVehicleAckermannGeometryData@physx@@QEAA@XZ
    ??0PxVehicleAntiRollBarData@physx@@QEAA@XZ
    ??0PxVehicleAutoBoxData@physx@@QEAA@W4PxEMPTY@1@@Z
    ??0PxVehicleAutoBoxData@physx@@QEAA@XZ
    ??0PxVehicleChassisData@physx@@QEAA@XZ
    ??0PxVehicleClutchData@physx@@QEAA@W4PxEMPTY@1@@Z
    ??0PxVehicleClutchData@physx@@QEAA@XZ
    ??0PxVehicleConcurrentUpdateData@physx@@QEAA@XZ
    ??0PxVehicleCopyDynamicsMap@physx@@QEAA@XZ
    ??0PxVehicleDifferential4WData@physx@@QEAA@W4PxEMPTY@1@@Z
    ??0PxVehicleDifferential4WData@physx@@QEAA@XZ
    ??0PxVehicleDifferentialNWData@physx@@QEAA@W4PxEMPTY@1@@Z
    ??0PxVehicleDifferentialNWData@physx@@QEAA@XZ
    ??0PxVehicleDrive4W@physx@@QEAA@V?$PxFlags@W4Enum@PxBaseFlag@physx@@G@1@@Z
    ??0PxVehicleDrive4WRawInputData@physx@@QEAA@XZ
    ??0PxVehicleDrive@physx@@QEAA@V?$PxFlags@W4Enum@PxBaseFlag@physx@@G@1@@Z
    ??0PxVehicleDriveDynData@physx@@QEAA@W4PxEMPTY@1@@Z
    ??0PxVehicleDriveDynData@physx@@QEAA@XZ
    ??0PxVehicleDriveNW@physx@@QEAA@V?$PxFlags@W4Enum@PxBaseFlag@physx@@G@1@@Z
    ??0PxVehicleDriveNW@physx@@QEAA@XZ
    ??0PxVehicleDriveNWRawInputData@physx@@QEAA@XZ
    ??0PxVehicleDriveSimData4W@physx@@QEAA@W4PxEMPTY@1@@Z
    ??0PxVehicleDriveSimData4W@physx@@QEAA@XZ
    ??0PxVehicleDriveSimData@physx@@QEAA@W4PxEMPTY@1@@Z
    ??0PxVehicleDriveSimData@physx@@QEAA@XZ
    ??0PxVehicleDriveSimDataNW@physx@@QEAA@W4PxEMPTY@1@@Z
    ??0PxVehicleDriveSimDataNW@physx@@QEAA@XZ
    ??0PxVehicleDriveTank@physx@@QEAA@V?$PxFlags@W4Enum@PxBaseFlag@physx@@G@1@@Z
    ??0PxVehicleDriveTankRawInputData@physx@@QEAA@W4Enum@PxVehicleDriveTankControlModel@1@@Z
    ??0PxVehicleEngineData@physx@@QEAA@W4PxEMPTY@1@@Z
    ??0PxVehicleEngineData@physx@@QEAA@XZ
    ??0PxVehicleGearsData@physx@@QEAA@W4PxEMPTY@1@@Z
    ??0PxVehicleGearsData@physx@@QEAA@XZ
    ??0PxVehicleGraphChannelDesc@physx@@QEAA@XZ
    ??0PxVehicleNoDrive@physx@@QEAA@V?$PxFlags@W4Enum@PxBaseFlag@physx@@G@1@@Z
    ??0PxVehicleSuspensionData@physx@@QEAA@XZ
    ??0PxVehicleTireData@physx@@QEAA@XZ
    ??0PxVehicleTireLoadFilterData@physx@@QEAA@W4PxEMPTY@1@@Z
    ??0PxVehicleTireLoadFilterData@physx@@QEAA@XZ
    ??0PxVehicleWheelConcurrentUpdateData@physx@@QEAA@XZ
    ??0PxVehicleWheelData@physx@@QEAA@XZ
    ??0PxVehicleWheels@physx@@QEAA@GV?$PxFlags@W4Enum@PxBaseFlag@physx@@G@1@@Z
    ??0PxVehicleWheels@physx@@QEAA@V?$PxFlags@W4Enum@PxBaseFlag@physx@@G@1@@Z
    ??0PxVehicleWheelsDynData@physx@@QEAA@XZ
    ??0PxVehicleWheelsSimData@physx@@QEAA@W4PxEMPTY@1@@Z
    ??0PxVehicleWheelsSimData@physx@@QEAA@XZ
    ??0PxWheelQueryResult@physx@@QEAA@XZ
    ??0PxXmlMiscParameter@PxSerialization@physx@@QEAA@AEAVPxVec3@2@VPxTolerancesScale@2@@Z
    ??0PxXmlMiscParameter@PxSerialization@physx@@QEAA@XZ
    ??0PxgDynamicsMemoryConfig@physx@@QEAA@XZ
    ??0RaycastCCDManager@physx@@QEAA@PEAVPxScene@1@@Z
    ??4PxBoxControllerDesc@physx@@QEAAAEAV01@AEBV01@@Z
    ??4PxCapsuleControllerDesc@physx@@QEAAAEAV01@AEBV01@@Z
    ??4PxFilterData@physx@@QEAAXAEBU01@@Z
    ??4PxMat33@physx@@QEAAAEAV01@AEBV01@@Z
    ??4PxMat44@physx@@QEAAAEAV01@AEBV01@@Z
    ??4PxMidphaseDesc@physx@@QEAAAEAV01@W4Enum@PxMeshMidPhase@1@@Z
    ??4PxQuat@physx@@QEAAAEAV01@AEBV01@@Z
    ??4PxTriangle@physx@@QEAAXAEBV01@@Z
    ??4PxVec2@physx@@QEAAAEAV01@AEBV01@@Z
    ??4PxVec3@physx@@QEAAAEAV01@AEBV01@@Z
    ??4PxVec4@physx@@QEAAAEAV01@AEBV01@@Z
    ??4PxVehicleWheelsSimData@physx@@QEAAAEAV01@AEBV01@@Z
    ??8PxFilterData@physx@@QEBA_NAEBU01@@Z
    ??8PxMat33@physx@@QEBA_NAEBV01@@Z
    ??8PxMat44@physx@@QEBA_NAEBV01@@Z
    ??8PxPlane@physx@@QEBA_NAEBV01@@Z
    ??8PxQuat@physx@@QEBA_NAEBV01@@Z
    ??8PxTransform@physx@@QEBA_NAEBV01@@Z
    ??8PxVec2@physx@@QEBA_NAEBV01@@Z
    ??8PxVec3@physx@@QEBA_NAEBV01@@Z
    ??8PxVec4@physx@@QEBA_NAEBV01@@Z
    ??9PxFilterData@physx@@QEBA_NAEBU01@@Z
    ??9PxVec2@physx@@QEBA_NAEBV01@@Z
    ??9PxVec3@physx@@QEBA_NAEBV01@@Z
    ??9PxVec4@physx@@QEBA_NAEBV01@@Z
    ??APxExtendedVec3@physx@@QEAAAEANH@Z
    ??APxExtendedVec3@physx@@QEBANH@Z
    ??APxMat33@physx@@QEAAAEAVPxVec3@1@I@Z
    ??APxMat33@physx@@QEBAAEBVPxVec3@1@I@Z
    ??APxMat44@physx@@QEAAAEAVPxVec4@1@I@Z
    ??APxMat44@physx@@QEBAAEBVPxVec4@1@I@Z
    ??APxVec2@physx@@QEAAAEAMH@Z
    ??APxVec2@physx@@QEBAAEBMH@Z
    ??APxVec3@physx@@QEAAAEAMI@Z
    ??APxVec3@physx@@QEBAAEBMI@Z
    ??APxVec4@physx@@QEAAAEAMI@Z
    ??APxVec4@physx@@QEBAAEBMI@Z
    ??DPxJacobianRow@physx@@QEBA?AU01@M@Z
    ??DPxMassProperties@physx@@QEBA?AV01@M@Z
    ??DPxMat33@physx@@QEBA?BV01@AEBV01@@Z
    ??DPxMat33@physx@@QEBA?BV01@M@Z
    ??DPxMat33@physx@@QEBA?BVPxVec3@1@AEBV21@@Z
    ??DPxMat44@physx@@QEBA?BV01@AEBV01@@Z
    ??DPxMat44@physx@@QEBA?BV01@M@Z
    ??DPxQuat@physx@@QEBA?AV01@AEBV01@@Z
    ??DPxQuat@physx@@QEBA?AV01@M@Z
    ??DPxTransform@physx@@QEBA?AV01@AEBV01@@Z
    ??DPxVec2@physx@@QEBA?AV01@M@Z
    ??DPxVec3@physx@@QEBA?AV01@M@Z
    ??DPxVec4@physx@@QEBA?AV01@M@Z
    ??GPxExtendedVec3@physx@@QEBA?AU01@XZ
    ??GPxExtendedVec3@physx@@QEBA?AVPxVec3@1@AEBU01@@Z
    ??GPxMat33@physx@@QEBA?BV01@AEBV01@@Z
    ??GPxMat33@physx@@QEBA?BV01@XZ
    ??GPxMat44@physx@@QEBA?BV01@AEBV01@@Z
    ??GPxMat44@physx@@QEBA?BV01@XZ
    ??GPxQuat@physx@@QEBA?AV01@AEBV01@@Z
    ??GPxQuat@physx@@QEBA?AV01@XZ
    ??GPxVec2@physx@@QEBA?AV01@AEBV01@@Z
    ??GPxVec2@physx@@QEBA?AV01@XZ
    ??GPxVec3@physx@@QEBA?AV01@AEBV01@@Z
    ??GPxVec3@physx@@QEBA?AV01@XZ
    ??GPxVec4@physx@@QEBA?AV01@AEBV01@@Z
    ??GPxVec4@physx@@QEBA?AV01@XZ
    ??HPxExtendedVec3@physx@@QEBA?AU01@AEBU01@@Z
    ??HPxMat33@physx@@QEBA?BV01@AEBV01@@Z
    ??HPxMat44@physx@@QEBA?BV01@AEBV01@@Z
    ??HPxQuat@physx@@QEBA?AV01@AEBV01@@Z
    ??HPxVec2@physx@@QEBA?AV01@AEBV01@@Z
    ??HPxVec3@physx@@QEBA?AV01@AEBV01@@Z
    ??HPxVec4@physx@@QEBA?AV01@AEBV01@@Z
    ??Iphysx@@YA?AV?$PxFlags@W4Enum@PxArticulationAxis@physx@@E@0@W4Enum@PxArticulationAxis@0@0@Z
    ??KPxVec2@physx@@QEBA?AV01@M@Z
    ??KPxVec3@physx@@QEBA?AV01@M@Z
    ??KPxVec4@physx@@QEBA?AV01@M@Z
    ??RPxMat33@physx@@QEAAAEAMII@Z
    ??RPxMat33@physx@@QEBAMII@Z
    ??RPxMat44@physx@@QEAAAEAMII@Z
    ??RPxMat44@physx@@QEBAMII@Z
    ??Sphysx@@YA?AV?$PxFlags@W4Enum@PxArticulationAxis@physx@@E@0@W4Enum@PxArticulationAxis@0@@Z
    ??Uphysx@@YA?AV?$PxFlags@W4Enum@PxArticulationAxis@physx@@E@0@W4Enum@PxArticulationAxis@0@0@Z
    ??XPxExtendedVec3@physx@@QEAAAEAU01@AEBM@Z
    ??XPxJacobianRow@physx@@QEAAXM@Z
    ??XPxMat33@physx@@QEAAAEAV01@AEBV01@@Z
    ??XPxMat33@physx@@QEAAAEAV01@M@Z
    ??XPxMat44@physx@@QEAAAEAV01@AEBV01@@Z
    ??XPxMat44@physx@@QEAAAEAV01@M@Z
    ??XPxQuat@physx@@QEAAAEAV01@AEBV01@@Z
    ??XPxQuat@physx@@QEAAAEAV01@M@Z
    ??XPxTransform@physx@@QEAAAEAV01@AEAV01@@Z
    ??XPxVec2@physx@@QEAAAEAV01@M@Z
    ??XPxVec3@physx@@QEAAAEAV01@M@Z
    ??XPxVec4@physx@@QEAAAEAV01@M@Z
    ??YPxExtendedVec3@physx@@QEAAAEAU01@AEBU01@@Z
    ??YPxExtendedVec3@physx@@QEAAAEAU01@AEBVPxVec3@1@@Z
    ??YPxMat33@physx@@QEAAAEAV01@AEBV01@@Z
    ??YPxMat44@physx@@QEAAAEAV01@AEBV01@@Z
    ??YPxQuat@physx@@QEAAAEAV01@AEBV01@@Z
    ??YPxVec2@physx@@QEAAAEAV01@AEBV01@@Z
    ??YPxVec3@physx@@QEAAAEAV01@AEBV01@@Z
    ??YPxVec4@physx@@QEAAAEAV01@AEBV01@@Z
    ??ZPxExtendedVec3@physx@@QEAAAEAU01@AEBU01@@Z
    ??ZPxExtendedVec3@physx@@QEAAAEAU01@AEBVPxVec3@1@@Z
    ??ZPxMat33@physx@@QEAAAEAV01@AEBV01@@Z
    ??ZPxMat44@physx@@QEAAAEAV01@AEBV01@@Z
    ??ZPxQuat@physx@@QEAAAEAV01@AEBV01@@Z
    ??ZPxVec2@physx@@QEAAAEAV01@AEBV01@@Z
    ??ZPxVec3@physx@@QEAAAEAV01@AEBV01@@Z
    ??ZPxVec4@physx@@QEAAAEAV01@AEBV01@@Z
    ??_0PxVec2@physx@@QEAAAEAV01@M@Z
    ??_0PxVec3@physx@@QEAAAEAV01@M@Z
    ??_0PxVec4@physx@@QEAAAEAV01@M@Z
    ?PxAbs@physx@@YAHH@Z
    ?PxAbs@physx@@YAMM@Z
    ?PxAbs@physx@@YANN@Z
    ?PxAcos@physx@@YAMM@Z
    ?PxAcos@physx@@YANN@Z
    ?PxAsin@physx@@YAMM@Z
    ?PxAsin@physx@@YANN@Z
    ?PxAtan2@physx@@YAMMM@Z
    ?PxAtan2@physx@@YANNN@Z
    ?PxAtan@physx@@YAMM@Z
    ?PxAtan@physx@@YANN@Z
    ?PxCeil@physx@@YAMM@Z
    ?PxCloneDynamic@physx@@YAPEAVPxRigidDynamic@1@AEAVPxPhysics@1@AEBVPxTransform@1@AEBV21@@Z
    ?PxCloneShape@physx@@YAPEAVPxShape@1@AEAVPxPhysics@1@AEBV21@_N@Z
    ?PxCloneStatic@physx@@YAPEAVPxRigidStatic@1@AEAVPxPhysics@1@AEBVPxTransform@1@AEBVPxRigidActor@1@@Z
    ?PxComputeHeightFieldPenetration@physx@@YA_NAEAVPxVec3@1@AEAMAEBVPxGeometry@1@AEBVPxTransform@1@AEBVPxHeightFieldGeometry@1@3IPEAI@Z
    ?PxComputeTriangleMeshPenetration@physx@@YA_NAEAVPxVec3@1@AEAMAEBVPxGeometry@1@AEBVPxTransform@1@AEBVPxTriangleMeshGeometry@1@3IPEAI@Z
    ?PxContactJointCreate@physx@@YAPEAVPxContactJoint@1@AEAVPxPhysics@1@PEAVPxRigidActor@1@AEBVPxTransform@1@12@Z
    ?PxCos@physx@@YAMM@Z
    ?PxCos@physx@@YANN@Z
    ?PxCreateCollection@@YAPEAVPxCollection@physx@@XZ
    ?PxCreateDynamic@physx@@YAPEAVPxRigidDynamic@1@AEAVPxPhysics@1@AEBVPxTransform@1@AEAVPxShape@1@M@Z
    ?PxCreateDynamic@physx@@YAPEAVPxRigidDynamic@1@AEAVPxPhysics@1@AEBVPxTransform@1@AEBVPxGeometry@1@AEAVPxMaterial@1@M1@Z
    ?PxCreateKinematic@physx@@YAPEAVPxRigidDynamic@1@AEAVPxPhysics@1@AEBVPxTransform@1@AEAVPxShape@1@M@Z
    ?PxCreateKinematic@physx@@YAPEAVPxRigidDynamic@1@AEAVPxPhysics@1@AEBVPxTransform@1@AEBVPxGeometry@1@AEAVPxMaterial@1@M1@Z
    ?PxCreatePhysics@@YAPEAVPxPhysics@physx@@IAEAVPxFoundation@2@AEBVPxTolerancesScale@2@_NPEAVPxPvd@2@@Z
    ?PxCreatePlane@physx@@YAPEAVPxRigidStatic@1@AEAVPxPhysics@1@AEBVPxPlane@1@AEAVPxMaterial@1@@Z
    ?PxCreateRepXObject@@YA?AUPxRepXObject@physx@@PEBVPxBase@2@_K@Z
    ?PxCreateStatic@physx@@YAPEAVPxRigidStatic@1@AEAVPxPhysics@1@AEBVPxTransform@1@AEAVPxShape@1@@Z
    ?PxCreateStatic@physx@@YAPEAVPxRigidStatic@1@AEAVPxPhysics@1@AEBVPxTransform@1@AEBVPxGeometry@1@AEAVPxMaterial@1@1@Z
    ?PxD6JointCreate@physx@@YAPEAVPxD6Joint@1@AEAVPxPhysics@1@PEAVPxRigidActor@1@AEBVPxTransform@1@12@Z
    ?PxD6JointCreate_Distance@physx@@YAPEAVPxJoint@1@AEAVPxPhysics@1@PEAVPxRigidActor@1@AEBVPxVec3@1@12M_N@Z
    ?PxD6JointCreate_Fixed@physx@@YAPEAVPxJoint@1@AEAVPxPhysics@1@PEAVPxRigidActor@1@AEBVPxVec3@1@12_N@Z
    ?PxD6JointCreate_GenericCone@physx@@YAPEAVPxJoint@1@AEAM0AEAVPxPhysics@1@PEAVPxRigidActor@1@AEBVPxVec3@1@23MMMM_N@Z
    ?PxD6JointCreate_Prismatic@physx@@YAPEAVPxJoint@1@AEAVPxPhysics@1@PEAVPxRigidActor@1@AEBVPxVec3@1@122MM_N@Z
    ?PxD6JointCreate_Pyramid@physx@@YAPEAVPxJoint@1@AEAVPxPhysics@1@PEAVPxRigidActor@1@AEBVPxVec3@1@122MMMM@Z
    ?PxD6JointCreate_Revolute@physx@@YAPEAVPxJoint@1@AEAVPxPhysics@1@PEAVPxRigidActor@1@AEBVPxVec3@1@122MM_N@Z
    ?PxD6JointCreate_Spherical@physx@@YAPEAVPxJoint@1@AEAVPxPhysics@1@PEAVPxRigidActor@1@AEBVPxVec3@1@122MM_N@Z
    ?PxDefaultCpuDispatcherCreate@physx@@YAPEAVPxDefaultCpuDispatcher@1@IPEAI@Z
    ?PxDefaultSimulationFilterShader@physx@@YA?AV?$PxFlags@W4Enum@PxFilterFlag@physx@@G@1@IUPxFilterData@1@I0AEAV?$PxFlags@W4Enum@PxPairFlag@physx@@G@1@PEBXI@Z
    ?PxDiagonalize@physx@@YA?AVPxVec3@1@AEBVPxMat33@1@AEAVPxQuat@1@@Z
    ?PxDistanceJointCreate@physx@@YAPEAVPxDistanceJoint@1@AEAVPxPhysics@1@PEAVPxRigidActor@1@AEBVPxTransform@1@12@Z
    ?PxEquals@physx@@YA_NMMM@Z
    ?PxExp@physx@@YAMM@Z
    ?PxFilterObjectIsKinematic@physx@@YA_NI@Z
    ?PxFilterObjectIsTrigger@physx@@YA_NI@Z
    ?PxFindFaceIndex@physx@@YAIAEBVPxConvexMeshGeometry@1@AEBVPxTransform@1@AEBVPxVec3@1@2@Z
    ?PxFixedJointCreate@physx@@YAPEAVPxFixedJoint@1@AEAVPxPhysics@1@PEAVPxRigidActor@1@AEBVPxTransform@1@12@Z
    ?PxFloor@physx@@YAMM@Z
    ?PxGetAssertHandler@physx@@YAAEAVPxAssertHandler@1@XZ
    ?PxGetFilterBool@physx@@YA_NXZ
    ?PxGetFilterConstants@physx@@YAXAEAVPxGroupsMask@1@0@Z
    ?PxGetFilterObjectType@physx@@YA?AW4Enum@PxFilterObjectType@1@I@Z
    ?PxGetFilterOps@physx@@YAXAEAW4Enum@PxFilterOp@1@00@Z
    ?PxGetGroup@physx@@YAGAEBVPxActor@1@@Z
    ?PxGetGroupCollisionFlag@physx@@YA_NGG@Z
    ?PxGetGroupsMask@physx@@YA?AVPxGroupsMask@1@AEBVPxActor@1@@Z
    ?PxIsFinite@physx@@YA_NM@Z
    ?PxIsFinite@physx@@YA_NN@Z
    ?PxLog@physx@@YAMM@Z
    ?PxMemCopy@physx@@YAPEAXPEAXPEBXI@Z
    ?PxMemMove@physx@@YAPEAXPEAXPEBXI@Z
    ?PxMemSet@physx@@YAPEAXPEAXHI@Z
    ?PxMemZero@physx@@YAPEAXPEAXI@Z
    ?PxPlaneEquationFromTransform@physx@@YA?AVPxPlane@1@AEBVPxTransform@1@@Z
    ?PxPow@physx@@YAMMM@Z
    ?PxPrismaticJointCreate@physx@@YAPEAVPxPrismaticJoint@1@AEAVPxPhysics@1@PEAVPxRigidActor@1@AEBVPxTransform@1@12@Z
    ?PxRecipSqrt@physx@@YAMM@Z
    ?PxRecipSqrt@physx@@YANN@Z
    ?PxRevoluteJointCreate@physx@@YAPEAVPxRevoluteJoint@1@AEAVPxPhysics@1@PEAVPxRigidActor@1@AEBVPxTransform@1@12@Z
    ?PxScaleRigidActor@physx@@YAXAEAVPxRigidActor@1@M_N@Z
    ?PxSetAssertHandler@physx@@YAXAEAVPxAssertHandler@1@@Z
    ?PxSetFilterBool@physx@@YAX_N@Z
    ?PxSetFilterConstants@physx@@YAXAEBVPxGroupsMask@1@0@Z
    ?PxSetFilterOps@physx@@YAXAEBW4Enum@PxFilterOp@1@00@Z
    ?PxSetGroup@physx@@YAXAEAVPxActor@1@G@Z
    ?PxSetGroupCollisionFlag@physx@@YAXGG_N@Z
    ?PxSetGroupsMask@physx@@YAXAEAVPxActor@1@AEBVPxGroupsMask@1@@Z
    ?PxShortestRotation@physx@@YA?AVPxQuat@1@AEBVPxVec3@1@0@Z
    ?PxSign@physx@@YAMM@Z
    ?PxSin@physx@@YAMM@Z
    ?PxSin@physx@@YANN@Z
    ?PxSphericalJointCreate@physx@@YAPEAVPxSphericalJoint@1@AEAVPxPhysics@1@PEAVPxRigidActor@1@AEBVPxTransform@1@12@Z
    ?PxSqrt@physx@@YAMM@Z
    ?PxSqrt@physx@@YANN@Z
    ?PxTan@physx@@YAMM@Z
    ?PxTan@physx@@YANN@Z
    ?PxTransformFromPlaneEquation@physx@@YA?AVPxTransform@1@AEBVPxPlane@1@@Z
    ?PxTransformFromSegment@physx@@YA?AVPxTransform@1@AEBVPxVec3@1@0PEAM@Z
    ?PxVehicle4WEnable3WDeltaMode@physx@@YAXAEAVPxVehicleWheelsSimData@1@AEAVPxVehicleWheelsDynData@1@AEAVPxVehicleDriveSimData4W@1@@Z
    ?PxVehicle4WEnable3WTadpoleMode@physx@@YAXAEAVPxVehicleWheelsSimData@1@AEAVPxVehicleWheelsDynData@1@AEAVPxVehicleDriveSimData4W@1@@Z
    ?PxVehicleComputeSprungMasses@physx@@YAXIPEBVPxVec3@1@AEBV21@MIPEAM@Z
    ?PxVehicleCopyDynamicsData@physx@@YAXAEBVPxVehicleCopyDynamicsMap@1@AEBVPxVehicleWheels@1@PEAV31@@Z
    ?PxVehicleDrive4WSmoothAnalogRawInputsAndSetAnalogInputs@physx@@YAXAEBUPxVehiclePadSmoothingData@1@AEBV?$PxFixedSizeLookupTable@$07@1@AEBVPxVehicleDrive4WRawInputData@1@M_NAEAVPxVehicleDrive4W@1@@Z
    ?PxVehicleDrive4WSmoothDigitalRawInputsAndSetAnalogInputs@physx@@YAXAEBUPxVehicleKeySmoothingData@1@AEBV?$PxFixedSizeLookupTable@$07@1@AEBVPxVehicleDrive4WRawInputData@1@M_NAEAVPxVehicleDrive4W@1@@Z
    ?PxVehicleDriveNWSmoothAnalogRawInputsAndSetAnalogInputs@physx@@YAXAEBUPxVehiclePadSmoothingData@1@AEBV?$PxFixedSizeLookupTable@$07@1@AEBVPxVehicleDriveNWRawInputData@1@M_NAEAVPxVehicleDriveNW@1@@Z
    ?PxVehicleDriveNWSmoothDigitalRawInputsAndSetAnalogInputs@physx@@YAXAEBUPxVehicleKeySmoothingData@1@AEBV?$PxFixedSizeLookupTable@$07@1@AEBVPxVehicleDriveNWRawInputData@1@M_NAEAVPxVehicleDriveNW@1@@Z
    ?PxVehicleDriveTankSmoothAnalogRawInputsAndSetAnalogInputs@physx@@YAXAEBUPxVehiclePadSmoothingData@1@AEBVPxVehicleDriveTankRawInputData@1@MAEAVPxVehicleDriveTank@1@@Z
    ?PxVehicleDriveTankSmoothDigitalRawInputsAndSetAnalogInputs@physx@@YAXAEBUPxVehicleKeySmoothingData@1@AEBVPxVehicleDriveTankRawInputData@1@MAEAVPxVehicleDriveTank@1@@Z
    ?PxVehicleIsInAir@physx@@YA_NAEBUPxVehicleWheelQueryResult@1@@Z
    ?PxVehicleModifyWheelContacts@physx@@YAIAEBVPxVehicleWheels@1@IMMAEAVPxContactModifyPair@1@@Z
    ?PxVehiclePostUpdates@physx@@YAXPEBUPxVehicleConcurrentUpdateData@1@IPEAPEAVPxVehicleWheels@1@@Z
    ?PxVehicleSetBasisVectors@physx@@YAXAEBVPxVec3@1@0@Z
    ?PxVehicleSetMaxHitActorAcceleration@physx@@YAXM@Z
    ?PxVehicleSetSweepHitRejectionAngles@physx@@YAXMM@Z
    ?PxVehicleSetUpdateMode@physx@@YAXW4Enum@PxVehicleUpdateMode@1@@Z
    ?PxVehicleShiftOrigin@physx@@YAXAEBVPxVec3@1@IPEAPEAVPxVehicleWheels@1@@Z
    ?PxVehicleSuspensionRaycasts@physx@@YAXPEAVPxBatchQuery@1@IPEAPEAVPxVehicleWheels@1@IPEAU?$PxBatchQueryResult@UPxRaycastHit@physx@@@1@PEB_N@Z
    ?PxVehicleSuspensionSweeps@physx@@YAXPEAVPxBatchQuery@1@IPEAPEAVPxVehicleWheels@1@IPEAU?$PxBatchQueryResult@UPxSweepHit@physx@@@1@GPEB_NMM@Z
    ?PxVehicleUpdateCMassLocalPose@physx@@YAXAEBVPxTransform@1@0IPEAVPxVehicleWheels@1@@Z
    ?PxVehicleUpdateSingleVehicleAndStoreTelemetryData@physx@@YAXMAEBVPxVec3@1@AEBVPxVehicleDrivableSurfaceToTireFrictionPairs@1@PEAVPxVehicleWheels@1@PEAUPxVehicleWheelQueryResult@1@AEAVPxVehicleTelemetryData@1@@Z
    ?PxVehicleUpdates@physx@@YAXMAEBVPxVec3@1@AEBVPxVehicleDrivableSurfaceToTireFrictionPairs@1@IPEAPEAVPxVehicleWheels@1@PEAUPxVehicleWheelQueryResult@1@PEAUPxVehicleConcurrentUpdateData@1@@Z
    ?abs@PxVec3@physx@@QEBA?AV12@XZ
    ?abs@intrinsics@physx@@YAMM@Z
    ?addAntiRollBarData@PxVehicleWheelsSimData@physx@@QEAAIAEBVPxVehicleAntiRollBarData@2@@Z
    ?addForceAtLocalPos@PxRigidBodyExt@physx@@SAXAEAVPxRigidBody@2@AEBVPxVec3@2@1W4Enum@PxForceMode@2@_N@Z
    ?addForceAtPos@PxRigidBodyExt@physx@@SAXAEAVPxRigidBody@2@AEBVPxVec3@2@1W4Enum@PxForceMode@2@_N@Z
    ?addLocalForceAtLocalPos@PxRigidBodyExt@physx@@SAXAEAVPxRigidBody@2@AEBVPxVec3@2@1W4Enum@PxForceMode@2@_N@Z
    ?addLocalForceAtPos@PxRigidBodyExt@physx@@SAXAEAVPxRigidBody@2@AEBVPxVec3@2@1W4Enum@PxForceMode@2@_N@Z
    ?advanceToIndex@PxContactStreamIterator@physx@@QEAA_NI@Z
    ?alignExtraData@PxDeserializationContext@physx@@QEAAXI@Z
    ?allocate@PxVehicleDrivableSurfaceToTireFrictionPairs@physx@@SAPEAV12@II@Z
    ?allocate@PxVehicleDrive4W@physx@@SAPEAV12@I@Z
    ?allocate@PxVehicleDriveNW@physx@@SAPEAV12@I@Z
    ?allocate@PxVehicleDriveTank@physx@@SAPEAV12@I@Z
    ?allocate@PxVehicleNoDrive@physx@@SAPEAV12@I@Z
    ?allocate@PxVehicleTelemetryData@physx@@SAPEAV12@I@Z
    ?allocate@PxVehicleWheelsSimData@physx@@SAPEAV12@I@Z
    ?any@PxGeometryHolder@physx@@QEAAAEAVPxGeometry@2@XZ
    ?any@PxGeometryHolder@physx@@QEBAAEBVPxGeometry@2@XZ
    ?area@PxTriangle@physx@@QEBAMXZ
    ?basisExtent@PxBounds3@physx@@SA?AV12@AEBVPxVec3@2@AEBVPxMat33@2@0@Z
    ?boundsOfPoints@PxBounds3@physx@@SA?AV12@AEBVPxVec3@2@0@Z
    ?box@PxGeometryHolder@physx@@QEAAAEAVPxBoxGeometry@2@XZ
    ?box@PxGeometryHolder@physx@@QEBAAEBVPxBoxGeometry@2@XZ
    ?bufferContacts@PxContactPair@physx@@QEBAXPEAU12@PEAE@Z
    ?capsule@PxGeometryHolder@physx@@QEAAAEAVPxCapsuleGeometry@2@XZ
    ?capsule@PxGeometryHolder@physx@@QEBAAEBVPxCapsuleGeometry@2@XZ
    ?centerExtents@PxBounds3@physx@@SA?AV12@AEBVPxVec3@2@0@Z
    ?clear@PxVehicleTelemetryData@physx@@QEAAXXZ
    ?clearRecordedChannelData@PxVehicleGraph@physx@@QEAAXXZ
    ?clearTessFlag@PxHeightFieldSample@physx@@QEAAXXZ
    ?complete@PxSerialization@physx@@SAXAEAVPxCollection@2@AEAVPxSerializationRegistry@2@PEBV32@_N@Z
    ?computeForwardSpeed@PxVehicleWheels@physx@@QEBAMXZ
    ?computeGraphChannel@PxVehicleGraph@physx@@QEBAXIPEAMPEAVPxVec3@2@PEAD@Z
    ?computeLinearAngularImpulse@PxRigidBodyExt@physx@@SAXAEBVPxRigidBody@2@AEBVPxTransform@2@AEBVPxVec3@2@2MMAEAV52@3@Z
    ?computeMassPropertiesFromShapes@PxRigidBodyExt@physx@@SA?AVPxMassProperties@2@PEBQEBVPxShape@2@I@Z
    ?computePenetration@PxGeometryQuery@physx@@SA_NAEAVPxVec3@2@AEAMAEBVPxGeometry@2@AEBVPxTransform@2@23@Z
    ?computeSidewaysSpeed@PxVehicleWheels@physx@@QEBAMXZ
    ?computeVelocityDeltaFromImpulse@PxRigidBodyExt@physx@@SAXAEBVPxRigidBody@2@AEBVPxTransform@2@AEBVPxVec3@2@2MMAEAV52@3@Z
    ?computeVelocityDeltaFromImpulse@PxRigidBodyExt@physx@@SAXAEBVPxRigidBody@2@AEBVPxVec3@2@1AEAV42@2@Z
    ?contact@ContactBuffer@Gu@physx@@QEAAPEAUContactPoint@23@XZ
    ?contact@ContactBuffer@Gu@physx@@QEAA_NAEBUContactPoint@23@@Z
    ?contact@ContactBuffer@Gu@physx@@QEAA_NAEBVPxVec3@3@0MGI@Z
    ?contact@ContactBuffer@Gu@physx@@QEAA_NAEBVPxVec3@3@0MI@Z
    ?contains@PxBounds3@physx@@QEBA_NAEBVPxVec3@2@@Z
    ?contains@PxPlane@physx@@QEBA_NAEBVPxVec3@2@@Z
    ?convexMesh@PxGeometryHolder@physx@@QEAAAEAVPxConvexMeshGeometry@2@XZ
    ?convexMesh@PxGeometryHolder@physx@@QEBAAEBVPxConvexMeshGeometry@2@XZ
    ?copy@PxVehicleWheelsDynData@physx@@QEAAXAEBV12@II@Z
    ?copy@PxVehicleWheelsSimData@physx@@QEAAXAEBV12@II@Z
    ?cos@intrinsics@physx@@YAMM@Z
    ?create@PxVehicleDrive4W@physx@@SAPEAV12@PEAVPxPhysics@2@PEAVPxRigidDynamic@2@AEBVPxVehicleWheelsSimData@2@AEBVPxVehicleDriveSimData4W@2@I@Z
    ?create@PxVehicleDriveNW@physx@@SAPEAV12@PEAVPxPhysics@2@PEAVPxRigidDynamic@2@AEBVPxVehicleWheelsSimData@2@AEBVPxVehicleDriveSimDataNW@2@I@Z
    ?create@PxVehicleDriveTank@physx@@SAPEAV12@PEAVPxPhysics@2@PEAVPxRigidDynamic@2@AEBVPxVehicleWheelsSimData@2@AEBVPxVehicleDriveSimData@2@I@Z
    ?create@PxVehicleNoDrive@physx@@SAPEAV12@PEAVPxPhysics@2@PEAVPxRigidDynamic@2@AEBVPxVehicleWheelsSimData@2@@Z
    ?createBinaryConverter@PxSerialization@physx@@SAPEAVPxBinaryConverter@2@XZ
    ?createCollection@PxCollectionExt@physx@@SAPEAVPxCollection@2@AEAVPxPhysics@2@@Z
    ?createCollection@PxCollectionExt@physx@@SAPEAVPxCollection@2@AEAVPxScene@2@@Z
    ?createCollectionFromBinary@PxSerialization@physx@@SAPEAVPxCollection@2@PEAXAEAVPxSerializationRegistry@2@PEBV32@@Z
    ?createCollectionFromXml@PxSerialization@physx@@SAPEAVPxCollection@2@AEAVPxInputData@2@AEAVPxCooking@2@AEAVPxSerializationRegistry@2@PEBV32@PEAVPxStringTable@2@PEAUPxXmlMiscParameter@12@@Z
    ?createDiagonal@PxMat33@physx@@SA?BV12@AEBVPxVec3@2@@Z
    ?createExclusiveShape@PxRigidActorExt@physx@@SAPEAVPxShape@2@AEAVPxRigidActor@2@AEBVPxGeometry@2@AEBVPxMaterial@2@V?$PxFlags@W4Enum@PxShapeFlag@physx@@E@2@@Z
    ?createExclusiveShape@PxRigidActorExt@physx@@SAPEAVPxShape@2@AEAVPxRigidActor@2@AEBVPxGeometry@2@PEBQEAVPxMaterial@2@GV?$PxFlags@W4Enum@PxShapeFlag@physx@@E@2@@Z
    ?createObject@PxVehicleDrive4W@physx@@SAPEAV12@AEAPEAEAEAVPxDeserializationContext@2@@Z
    ?createObject@PxVehicleDriveNW@physx@@SAPEAV12@AEAPEAEAEAVPxDeserializationContext@2@@Z
    ?createObject@PxVehicleDriveTank@physx@@SAPEAV12@AEAPEAEAEAVPxDeserializationContext@2@@Z
    ?createObject@PxVehicleNoDrive@physx@@SAPEAV12@AEAPEAEAEAVPxDeserializationContext@2@@Z
    ?createRegionsFromWorldBounds@PxBroadPhaseExt@physx@@SAIPEAVPxBounds3@2@AEBV32@II@Z
    ?createSerialObjectIds@PxSerialization@physx@@SAXAEAVPxCollection@2@_K@Z
    ?createSerializationRegistry@PxSerialization@physx@@SAPEAVPxSerializationRegistry@2@AEAVPxPhysics@2@@Z
    ?createShape@PxPhysics@physx@@QEAAPEAVPxShape@2@AEBVPxGeometry@2@AEBVPxMaterial@2@_NV?$PxFlags@W4Enum@PxShapeFlag@physx@@E@2@@Z
    ?createStringTable@PxStringTableExt@physx@@SAAEAVPxStringTable@2@AEAVPxAllocatorCallback@2@@Z
    ?createTaskManager@PxTaskManager@physx@@SAPEAV12@AEAVPxErrorCallback@2@PEAVPxCpuDispatcher@2@@Z
    ?cross@PxExtendedVec3@physx@@QEAAXAEBU12@0@Z
    ?cross@PxExtendedVec3@physx@@QEAAXAEBU12@AEBVPxVec3@2@@Z
    ?cross@PxExtendedVec3@physx@@QEAAXAEBVPxVec3@2@AEBU12@@Z
    ?cross@PxExtendedVec3@physx@@QEBA?AU12@AEBU12@@Z
    ?cross@PxVec3@physx@@QEBA?AV12@AEBV12@@Z
    ?denormalizedNormal@PxTriangle@physx@@QEBAXAEAVPxVec3@2@@Z
    ?disableWheel@PxVehicleWheelsSimData@physx@@QEAAXI@Z
    ?distance@PxPlane@physx@@QEBAMAEBVPxVec3@2@@Z
    ?distanceSquared@PxExtendedVec3@physx@@QEBANAEBU12@@Z
    ?doRaycastCCD@RaycastCCDManager@physx@@QEAAX_N@Z
    ?dot@PxExtendedVec3@physx@@QEBANAEBVPxVec3@2@@Z
    ?dot@PxQuat@physx@@QEBAMAEBV12@@Z
    ?dot@PxVec2@physx@@QEBAMAEBV12@@Z
    ?dot@PxVec3@physx@@QEBAMAEBV12@@Z
    ?dot@PxVec4@physx@@QEBAMAEBV12@@Z
    ?dumpBinaryMetaData@PxSerialization@physx@@SAXAEAVPxOutputStream@2@AEAVPxSerializationRegistry@2@@Z
    ?empty@PxBounds3@physx@@SA?AV12@XZ
    ?enableWheel@PxVehicleWheelsSimData@physx@@QEAAXI@Z
    ?extractContacts@PxContactPair@physx@@QEBAIPEAUPxContactPairPoint@2@I@Z
    ?fattenFast@PxBounds3@physx@@QEAAXM@Z
    ?fattenSafe@PxBounds3@physx@@QEAAXM@Z
    ?findOverlap@PxMeshOverlapUtil@physx@@QEAAIAEBVPxGeometry@2@AEBVPxTransform@2@AEBVPxHeightFieldGeometry@2@1@Z
    ?findOverlap@PxMeshOverlapUtil@physx@@QEAAIAEBVPxGeometry@2@AEBVPxTransform@2@AEBVPxTriangleMeshGeometry@2@1@Z
    ?findOverlapHeightField@PxMeshQuery@physx@@SAIAEBVPxGeometry@2@AEBVPxTransform@2@AEBVPxHeightFieldGeometry@2@1PEAIIIAEA_N@Z
    ?findOverlapTriangleMesh@PxMeshQuery@physx@@SAIAEBVPxGeometry@2@AEBVPxTransform@2@AEBVPxTriangleMeshGeometry@2@1PEAIIIAEA_N@Z
    ?finishBefore@PxTask@physx@@QEAAXI@Z
    ?forceGearChange@PxVehicleDriveDynData@physx@@QEAAXI@Z
    ?free@PxVehicleDrive4W@physx@@QEAAXXZ
    ?free@PxVehicleDriveNW@physx@@QEAAXXZ
    ?free@PxVehicleDriveTank@physx@@QEAAXXZ
    ?free@PxVehicleNoDrive@physx@@QEAAXXZ
    ?free@PxVehicleTelemetryData@physx@@QEAAXXZ
    ?free@PxVehicleWheelsSimData@physx@@QEAAXXZ
    ?front@PxMat33@physx@@QEBAPEBMXZ
    ?front@PxMat44@physx@@QEBAPEBMXZ
    ?fsel@intrinsics@physx@@YAMMMM@Z
    ?getAckermannGeometryData@PxVehicleDriveSimData4W@physx@@QEBAAEBVPxVehicleAckermannGeometryData@2@XZ
    ?getAllocId@PxAllocInfo@physx@@QEBA?AW4Enum@PxAllocId@2@XZ
    ?getAllocName@PxAllocInfo@physx@@QEBAPEBDXZ
    ?getAnalogAccel@PxVehicleDrive4WRawInputData@physx@@QEBAMXZ
    ?getAnalogAccel@PxVehicleDriveTankRawInputData@physx@@QEBAMXZ
    ?getAnalogBrake@PxVehicleDrive4WRawInputData@physx@@QEBAMXZ
    ?getAnalogHandbrake@PxVehicleDrive4WRawInputData@physx@@QEBAMXZ
    ?getAnalogInput@PxVehicleDriveDynData@physx@@QEBAMI@Z
    ?getAnalogLeftBrake@PxVehicleDriveTankRawInputData@physx@@QEBAMXZ
    ?getAnalogLeftThrust@PxVehicleDriveTankRawInputData@physx@@QEBAMXZ
    ?getAnalogRightBrake@PxVehicleDriveTankRawInputData@physx@@QEBAMXZ
    ?getAnalogRightThrust@PxVehicleDriveTankRawInputData@physx@@QEBAMXZ
    ?getAnalogSteer@PxVehicleDrive4WRawInputData@physx@@QEBAMXZ
    ?getAngle@PxQuat@physx@@QEBAMAEBV12@@Z
    ?getAngle@PxQuat@physx@@QEBAMXZ
    ?getAntiRollBarData@PxVehicleWheelsSimData@physx@@QEBAAEBVPxVehicleAntiRollBarData@2@I@Z
    ?getAutoBoxData@PxVehicleDriveSimData@physx@@QEBAAEBVPxVehicleAutoBoxData@2@XZ
    ?getAutoBoxSwitchTime@PxVehicleDriveDynData@physx@@QEBAMXZ
    ?getBackgroundAlpha@PxVehicleGraph@physx@@QEBAMXZ
    ?getBackgroundColor@PxVehicleGraph@physx@@QEBAAEBVPxVec3@2@XZ
    ?getBackgroundCoords@PxVehicleGraph@physx@@QEBAXAEAM000@Z
    ?getBaseFlags@PxBase@physx@@QEBA?AV?$PxFlags@W4Enum@PxBaseFlag@physx@@G@2@XZ
    ?getBasis@PxMat44@physx@@QEBA?BVPxVec3@2@H@Z
    ?getBasisVector0@PxQuat@physx@@QEBA?AVPxVec3@2@XZ
    ?getBasisVector1@PxQuat@physx@@QEBA?AVPxVec3@2@XZ
    ?getBasisVector2@PxQuat@physx@@QEBA?AVPxVec3@2@XZ
    ?getBinaryMetaData@PxJoint@physx@@SAXAEAVPxOutputStream@2@@Z
    ?getBinaryMetaData@PxVehicleDrive4W@physx@@SAXAEAVPxOutputStream@2@@Z
    ?getBinaryMetaData@PxVehicleDrive@physx@@SAXAEAVPxOutputStream@2@@Z
    ?getBinaryMetaData@PxVehicleDriveNW@physx@@SAXAEAVPxOutputStream@2@@Z
    ?getBinaryMetaData@PxVehicleDriveSimData4W@physx@@SAXAEAVPxOutputStream@2@@Z
    ?getBinaryMetaData@PxVehicleDriveSimData@physx@@SAXAEAVPxOutputStream@2@@Z
    ?getBinaryMetaData@PxVehicleDriveSimDataNW@physx@@SAXAEAVPxOutputStream@2@@Z
    ?getBinaryMetaData@PxVehicleDriveTank@physx@@SAXAEAVPxOutputStream@2@@Z
    ?getBinaryMetaData@PxVehicleNoDrive@physx@@SAXAEAVPxOutputStream@2@@Z
    ?getBinaryMetaData@PxVehicleWheels@physx@@SAXAEAVPxOutputStream@2@@Z
    ?getBinaryMetaData@PxVehicleWheelsDynData@physx@@SAXAEAVPxOutputStream@2@@Z
    ?getBinaryMetaData@PxVehicleWheelsSimData@physx@@SAXAEAVPxOutputStream@2@@Z
    ?getBrakeTorque@PxVehicleNoDrive@physx@@QEBAMI@Z
    ?getCenter@PxBounds3@physx@@QEBA?AVPxVec3@2@XZ
    ?getCenter@PxBounds3@physx@@QEBAMI@Z
    ?getClutchData@PxVehicleDriveSimData@physx@@QEBAAEBVPxVehicleClutchData@2@XZ
    ?getConcreteType@PxBase@physx@@QEBAGXZ
    ?getConjugate@PxQuat@physx@@QEBA?AV12@XZ
    ?getContactNormal@PxContactStreamIterator@physx@@QEBAAEBVPxVec3@2@XZ
    ?getContactPoint@PxContactStreamIterator@physx@@QEBAAEBVPxVec3@2@XZ
    ?getContextId@PxBaseTask@physx@@QEBA_KXZ
    ?getContinuation@PxLightCpuTask@physx@@QEBAPEAVPxBaseTask@2@XZ
    ?getCurrentGear@PxVehicleDriveDynData@physx@@QEBAIXZ
    ?getDenominator@PxVehicleTireLoadFilterData@physx@@QEBAMXZ
    ?getDeterminant@PxMat33@physx@@QEBAMXZ
    ?getDiffData@PxVehicleDriveSimData4W@physx@@QEBAAEBVPxVehicleDifferential4WData@2@XZ
    ?getDiffData@PxVehicleDriveSimDataNW@physx@@QEBAAEBVPxVehicleDifferentialNWData@2@XZ
    ?getDigitalAccel@PxVehicleDrive4WRawInputData@physx@@QEBA_NXZ
    ?getDigitalAccel@PxVehicleDriveTankRawInputData@physx@@QEBA_NXZ
    ?getDigitalBrake@PxVehicleDrive4WRawInputData@physx@@QEBA_NXZ
    ?getDigitalHandbrake@PxVehicleDrive4WRawInputData@physx@@QEBA_NXZ
    ?getDigitalLeftBrake@PxVehicleDriveTankRawInputData@physx@@QEBA_NXZ
    ?getDigitalLeftThrust@PxVehicleDriveTankRawInputData@physx@@QEBA_NXZ
    ?getDigitalRightBrake@PxVehicleDriveTankRawInputData@physx@@QEBA_NXZ
    ?getDigitalRightThrust@PxVehicleDriveTankRawInputData@physx@@QEBA_NXZ
    ?getDigitalSteerLeft@PxVehicleDrive4WRawInputData@physx@@QEBA_NXZ
    ?getDigitalSteerRight@PxVehicleDrive4WRawInputData@physx@@QEBA_NXZ
    ?getDimensions@PxBounds3@physx@@QEBA?AVPxVec3@2@XZ
    ?getDownRatios@PxVehicleAutoBoxData@physx@@QEBAMW4Enum@PxVehicleGearsData@2@@Z
    ?getDriveModel@PxVehicleDriveTank@physx@@QEBA?AW4Enum@PxVehicleDriveTankControlModel@2@XZ
    ?getDriveModel@PxVehicleDriveTankRawInputData@physx@@QEBA?AW4Enum@PxVehicleDriveTankControlModel@2@XZ
    ?getDriveTorque@PxVehicleNoDrive@physx@@QEBAMI@Z
    ?getDrivenWheelStatus@PxVehicleDifferentialNWData@physx@@QEBAIXZ
    ?getDynamicFriction@PxContactSet@physx@@QEBAMI@Z
    ?getDynamicFriction@PxContactStreamIterator@physx@@QEBAMXZ
    ?getEndianMode@PxFileBuf@general_PxIOStream2@physx@@QEBA?AW4EndianMode@123@XZ
    ?getEngineData@PxVehicleDriveSimData@physx@@QEBAAEBVPxVehicleEngineData@2@XZ
    ?getEngineGraph@PxVehicleTelemetryData@physx@@QEBAAEBVPxVehicleGraph@2@XZ
    ?getEngineRotationSpeed@PxVehicleDriveDynData@physx@@QEBAMXZ
    ?getExtents@PxBounds3@physx@@QEBA?AVPxVec3@2@XZ
    ?getExtents@PxBounds3@physx@@QEBAMI@Z
    ?getFaceIndex0@PxContactStreamIterator@physx@@QEBAIXZ
    ?getFaceIndex1@PxContactStreamIterator@physx@@QEBAIXZ
    ?getFileName@PxAllocInfo@physx@@QEBAPEBDXZ
    ?getFlags@PxVehicleWheelsSimData@physx@@QEBA?AV?$PxFlags@W4Enum@PxVehicleWheelsSimFlag@physx@@I@2@XZ
    ?getFrictionVsSlipGraphRecipx1Minusx0@PxVehicleTireData@physx@@QEBAMXZ
    ?getFrictionVsSlipGraphRecipx2Minusx1@PxVehicleTireData@physx@@QEBAMXZ
    ?getGearChange@PxVehicleDriveDynData@physx@@QEBAIXZ
    ?getGearDown@PxVehicleDrive4WRawInputData@physx@@QEBA_NXZ
    ?getGearDown@PxVehicleDriveDynData@physx@@QEBA_NXZ
    ?getGearDown@PxVehicleDriveTankRawInputData@physx@@QEBA_NXZ
    ?getGearRatio@PxVehicleGearsData@physx@@QEBAMW4Enum@12@@Z
    ?getGearSwitchTime@PxVehicleDriveDynData@physx@@QEBAMXZ
    ?getGearUp@PxVehicleDrive4WRawInputData@physx@@QEBA_NXZ
    ?getGearUp@PxVehicleDriveDynData@physx@@QEBA_NXZ
    ?getGearUp@PxVehicleDriveTankRawInputData@physx@@QEBA_NXZ
    ?getGearsData@PxVehicleDriveSimData@physx@@QEBAAEBVPxVehicleGearsData@2@XZ
    ?getGlobalPose@PxShapeExt@physx@@SA?AVPxTransform@2@AEBVPxShape@2@AEBVPxRigidActor@2@@Z
    ?getHighForwardSpeedSubStepCount@PxVehicleWheelsSimData@physx@@QEBAIXZ
    ?getImaginaryPart@PxQuat@physx@@QEBA?AVPxVec3@2@XZ
    ?getInternalFaceIndex0@PxContactSet@physx@@QEAAII@Z
    ?getInternalFaceIndex1@PxContactSet@physx@@QEAAII@Z
    ?getInternalFaceIndices@PxContactPair@physx@@QEBAPEBIXZ
    ?getInvInertiaScale0@PxContactSet@physx@@QEBAMXZ
    ?getInvInertiaScale0@PxContactStreamIterator@physx@@QEBAMXZ
    ?getInvInertiaScale1@PxContactSet@physx@@QEBAMXZ
    ?getInvInertiaScale1@PxContactStreamIterator@physx@@QEBAMXZ
    ?getInvMassScale0@PxContactSet@physx@@QEBAMXZ
    ?getInvMassScale0@PxContactStreamIterator@physx@@QEBAMXZ
    ?getInvMassScale1@PxContactSet@physx@@QEBAMXZ
    ?getInvMassScale1@PxContactStreamIterator@physx@@QEBAMXZ
    ?getInverse@PxMat33@physx@@QEBA?BV12@XZ
    ?getInverse@PxMeshScale@physx@@QEBA?AV12@XZ
    ?getInverse@PxTransform@physx@@QEBA?AV12@XZ
    ?getIsDrivenWheel@PxVehicleDifferentialNWData@physx@@QEBA_NI@Z
    ?getIsWheelDisabled@PxVehicleWheelsSimData@physx@@QEBA_NI@Z
    ?getLatency@PxVehicleAutoBoxData@physx@@QEBAMXZ
    ?getLatestValue@PxVehicleGraph@physx@@QEBAMI@Z
    ?getLine@PxAllocInfo@physx@@QEBAHXZ
    ?getLinearLimit@PxD6Joint@physx@@QEBA?AVPxJointLinearLimit@2@XZ
    ?getLocalVelocityAtLocalPos@PxRigidBodyExt@physx@@SA?AVPxVec3@2@AEBVPxRigidBody@2@AEBV32@@Z
    ?getLowForwardSpeedSubStepCount@PxVehicleWheelsSimData@physx@@QEBAIXZ
    ?getMassSpaceInertia@PxMassProperties@physx@@SA?AVPxVec3@2@AEBVPxMat33@2@AEAVPxQuat@2@@Z
    ?getMaterialFlags@PxContactStreamIterator@physx@@QEBAIXZ
    ?getMaterialIndex0@PxContactStreamIterator@physx@@QEBAGXZ
    ?getMaterialIndex1@PxContactStreamIterator@physx@@QEBAGXZ
    ?getMaxImpulse@PxContactSet@physx@@QEBAMI@Z
    ?getMaxImpulse@PxContactStreamIterator@physx@@QEBAMXZ
    ?getMaxNbSurfaceTypes@PxVehicleDrivableSurfaceToTireFrictionPairs@physx@@QEBAIXZ
    ?getMaxNbTireTypes@PxVehicleDrivableSurfaceToTireFrictionPairs@physx@@QEBAIXZ
    ?getMaxOverlapsPerExecute@PxBatchQueryMemory@physx@@QEBAIXZ
    ?getMaxRaycastsPerExecute@PxBatchQueryMemory@physx@@QEBAIXZ
    ?getMaxSweepsPerExecute@PxBatchQueryMemory@physx@@QEBAIXZ
    ?getMinLongSlipDenominator@PxVehicleWheelsSimData@physx@@QEBAMXZ
    ?getNbAnalogInput@PxVehicleDriveDynData@physx@@QEBAIXZ
    ?getNbAntiRollBarData@PxVehicleWheelsSimData@physx@@QEBAIXZ
    ?getNbAntiRollBars4@PxVehicleWheelsSimData@physx@@QEBAIXZ
    ?getNbAntiRollBars@PxVehicleWheelsSimData@physx@@QEBAIXZ
    ?getNbBrakeTorque@PxVehicleNoDrive@physx@@QEBAIXZ
    ?getNbBroadPhaseAdds@PxSimulationStatistics@physx@@QEBAIXZ
    ?getNbBroadPhaseRemoves@PxSimulationStatistics@physx@@QEBAIXZ
    ?getNbDriveTorque@PxVehicleNoDrive@physx@@QEBAIXZ
    ?getNbNonDrivenWheels@PxVehicleWheels@physx@@QEBAIXZ
    ?getNbResults@PxMeshOverlapUtil@physx@@QEBAIXZ
    ?getNbSceneQueryFilterData@PxVehicleWheelsSimData@physx@@QEBAIXZ
    ?getNbSteerAngle@PxVehicleNoDrive@physx@@QEBAIXZ
    ?getNbSuspForceAppPointOffset@PxVehicleWheelsSimData@physx@@QEBAIXZ
    ?getNbSuspTravelDirection@PxVehicleWheelsSimData@physx@@QEBAIXZ
    ?getNbSuspensionData@PxVehicleWheelsSimData@physx@@QEBAIXZ
    ?getNbTireData@PxVehicleWheelsSimData@physx@@QEBAIXZ
    ?getNbTireForceAppPointOffset@PxVehicleWheelsSimData@physx@@QEBAIXZ
    ?getNbWheelCentreOffset@PxVehicleWheelsSimData@physx@@QEBAIXZ
    ?getNbWheelData@PxVehicleWheelsSimData@physx@@QEBAIXZ
    ?getNbWheelEnabledState@PxVehicleWheelsSimData@physx@@QEBAIXZ
    ?getNbWheelGraphs@PxVehicleTelemetryData@physx@@QEBAIXZ
    ?getNbWheelRotationAngle@PxVehicleWheelsDynData@physx@@QEBAIXZ
    ?getNbWheelRotationSpeed@PxVehicleWheelsDynData@physx@@QEBAIXZ
    ?getNbWheelShapeMapping@PxVehicleWheelsSimData@physx@@QEBAIXZ
    ?getNbWheels4@PxVehicleWheelsSimData@physx@@QEBAIXZ
    ?getNbWheels@PxVehicleWheelsSimData@physx@@QEBAIXZ
    ?getNormal@PxContactSet@physx@@QEBAAEBVPxVec3@2@I@Z
    ?getNormalized@PxQuat@physx@@QEBA?AV12@XZ
    ?getNormalized@PxTransform@physx@@QEBA?AV12@XZ
    ?getNormalized@PxVec2@physx@@QEBA?AV12@XZ
    ?getNormalized@PxVec3@physx@@QEBA?AV12@XZ
    ?getNormalized@PxVec4@physx@@QEBA?AV12@XZ
    ?getPoint@PxContactSet@physx@@QEBAAEBVPxVec3@2@I@Z
    ?getPosition@PxMat44@physx@@QEBA?BVPxVec3@2@XZ
    ?getRbPairStats@PxSimulationStatistics@physx@@QEBAIW4RbPairStatsType@12@W4Enum@PxGeometryType@2@1@Z
    ?getRecipLongitudinalStiffnessPerUnitGravity@PxVehicleTireData@physx@@QEBAMXZ
    ?getRecipMOI@PxVehicleEngineData@physx@@QEBAMXZ
    ?getRecipMOI@PxVehicleWheelData@physx@@QEBAMXZ
    ?getRecipMaxCompression@PxVehicleSuspensionData@physx@@QEBAMXZ
    ?getRecipMaxDroop@PxVehicleSuspensionData@physx@@QEBAMXZ
    ?getRecipMaxOmega@PxVehicleEngineData@physx@@QEBAMXZ
    ?getRecipRadius@PxVehicleWheelData@physx@@QEBAMXZ
    ?getRestitution@PxContactSet@physx@@QEBAMI@Z
    ?getRestitution@PxContactStreamIterator@physx@@QEBAMXZ
    ?getResults@PxMeshOverlapUtil@physx@@QEBAPEBIXZ
    ?getRigidActorShapeLocalBoundsList@PxRigidActorExt@physx@@SAPEAVPxBounds3@2@AEBVPxRigidActor@2@AEAI@Z
    ?getRigidDynamicActor@PxVehicleWheels@physx@@QEAAPEAVPxRigidDynamic@2@XZ
    ?getRigidDynamicActor@PxVehicleWheels@physx@@QEBAPEBVPxRigidDynamic@2@XZ
    ?getSceneQueryFilterData@PxVehicleWheelsSimData@physx@@QEBAAEBUPxFilterData@2@I@Z
    ?getSeparation@PxContactSet@physx@@QEBAMI@Z
    ?getSeparation@PxContactStreamIterator@physx@@QEBAMXZ
    ?getStaticFriction@PxContactSet@physx@@QEBAMI@Z
    ?getStaticFriction@PxContactStreamIterator@physx@@QEBAMXZ
    ?getSteerAngle@PxVehicleNoDrive@physx@@QEBAMI@Z
    ?getSuspForceAppPointOffset@PxVehicleWheelsSimData@physx@@QEBAAEBVPxVec3@2@I@Z
    ?getSuspTravelDirection@PxVehicleWheelsSimData@physx@@QEBAAEBVPxVec3@2@I@Z
    ?getSuspensionData@PxVehicleWheelsSimData@physx@@QEBAAEBVPxVehicleSuspensionData@2@I@Z
    ?getSuspforceAppPoints@PxVehicleTelemetryData@physx@@QEBAPEBVPxVec3@2@XZ
    ?getTargetGear@PxVehicleDriveDynData@physx@@QEBAIXZ
    ?getTargetVel@PxContactStreamIterator@physx@@QEBAAEBVPxVec3@2@XZ
    ?getTargetVelocity@PxContactSet@physx@@QEBAAEBVPxVec3@2@I@Z
    ?getTaskID@PxTask@physx@@QEBAIXZ
    ?getTaskManager@PxBaseTask@physx@@QEBAPEAVPxTaskManager@2@XZ
    ?getThresholdLongSpeed@PxVehicleWheelsSimData@physx@@QEBAMXZ
    ?getTireData@PxVehicleWheelsSimData@physx@@QEBAAEBVPxVehicleTireData@2@I@Z
    ?getTireForceAppPointOffset@PxVehicleWheelsSimData@physx@@QEBAAEBVPxVec3@2@I@Z
    ?getTireForceShaderData@PxVehicleWheelsDynData@physx@@QEBAPEBXI@Z
    ?getTireLoadFilterData@PxVehicleWheelsSimData@physx@@QEBAAEBVPxVehicleTireLoadFilterData@2@XZ
    ?getTireforceAppPoints@PxVehicleTelemetryData@physx@@QEBAPEBVPxVec3@2@XZ
    ?getTolerancesScale@PxSceneDesc@physx@@QEBAAEBVPxTolerancesScale@2@XZ
    ?getTotalContactCount@PxContactStreamIterator@physx@@QEBAIXZ
    ?getTotalPatchCount@PxContactStreamIterator@physx@@QEBAIXZ
    ?getTranspose@PxMat33@physx@@QEBA?BV12@XZ
    ?getTranspose@PxMat44@physx@@QEBA?BV12@XZ
    ?getTriangle@PxMeshQuery@physx@@SAXAEBVPxHeightFieldGeometry@2@AEBVPxTransform@2@IAEAVPxTriangle@2@PEAI3@Z
    ?getTriangle@PxMeshQuery@physx@@SAXAEBVPxTriangleMeshGeometry@2@AEBVPxTransform@2@IAEAVPxTriangle@2@PEAI3@Z
    ?getTwist@PxD6Joint@physx@@QEBAMXZ
    ?getType@PxControllerDesc@physx@@QEBA?AW4Enum@PxControllerShapeType@2@XZ
    ?getType@PxGeometry@physx@@QEBA?AW4Enum@PxGeometryType@2@XZ
    ?getType@PxGeometryHolder@physx@@QEBA?AW4Enum@PxGeometryType@2@XZ
    ?getType@PxMidphaseDesc@physx@@QEBA?AW4Enum@PxMeshMidPhase@2@XZ
    ?getType@PxObstacle@physx@@QEBA?AW4Enum@PxGeometryType@2@XZ
    ?getTypePairFriction@PxVehicleDrivableSurfaceToTireFrictionPairs@physx@@QEBAMII@Z
    ?getUpRatios@PxVehicleAutoBoxData@physx@@QEBAMW4Enum@PxVehicleGearsData@2@@Z
    ?getUseAutoGears@PxVehicleDriveDynData@physx@@QEBA_NXZ
    ?getUserData@PxVehicleWheelsDynData@physx@@QEBAPEAXI@Z
    ?getVehicleType@PxVehicleWheels@physx@@QEBAIXZ
    ?getVelocityAtOffset@PxRigidBodyExt@physx@@SA?AVPxVec3@2@AEBVPxRigidBody@2@AEBV32@@Z
    ?getVelocityAtPos@PxRigidBodyExt@physx@@SA?AVPxVec3@2@AEBVPxRigidBody@2@AEBV32@@Z
    ?getWheel4DynData@PxVehicleWheelsDynData@physx@@QEBAPEAVPxVehicleWheels4DynData@2@XZ
    ?getWheelCentreOffset@PxVehicleWheelsSimData@physx@@QEBAAEBVPxVec3@2@I@Z
    ?getWheelData@PxVehicleWheelsSimData@physx@@QEBAAEBVPxVehicleWheelData@2@I@Z
    ?getWheelEnabledState@PxVehicleWheelsSimData@physx@@QEBA_NI@Z
    ?getWheelGraph@PxVehicleTelemetryData@physx@@QEBAAEBVPxVehicleGraph@2@I@Z
    ?getWheelRotationAngle@PxVehicleWheelsDynData@physx@@QEBAMI@Z
    ?getWheelRotationSpeed@PxVehicleWheelsDynData@physx@@QEBAMI@Z
    ?getWheelShapeMapping@PxVehicleWheelsSimData@physx@@QEBAHI@Z
    ?getWorldBounds@PxGeometryQuery@physx@@SA?AVPxBounds3@2@AEBVPxGeometry@2@AEBVPxTransform@2@M@Z
    ?getWorldBounds@PxShapeExt@physx@@SA?AVPxBounds3@2@AEBVPxShape@2@AEBVPxRigidActor@2@M@Z
    ?getXYZ@PxVec4@physx@@QEBA?AVPxVec3@2@XZ
    ?hadInitialOverlap@PxLocationHit@physx@@QEBA_NXZ
    ?hasNegativeDeterminant@PxMeshScale@physx@@QEBA_NXZ
    ?hasNextContact@PxContactStreamIterator@physx@@QEBA_NXZ
    ?hasNextPatch@PxContactStreamIterator@physx@@QEBA_NXZ
    ?heightField@PxGeometryHolder@physx@@QEAAAEAVPxHeightFieldGeometry@2@XZ
    ?heightField@PxGeometryHolder@physx@@QEBAAEBVPxHeightFieldGeometry@2@XZ
    ?ignore@PxContactSet@physx@@QEAAXI@Z
    ?importExtraData@PxVehicleNoDrive@physx@@QEAAXAEAVPxDeserializationContext@2@@Z
    ?importExtraData@PxVehicleWheels@physx@@QEAAXAEAVPxDeserializationContext@2@@Z
    ?include@PxBounds3@physx@@QEAAXAEBV12@@Z
    ?include@PxBounds3@physx@@QEAAXAEBVPxVec3@2@@Z
    ?initData@PxFeatherstoneArticulationLinkData@immediate@physx@@QEAAXXZ
    ?intersects1D@PxBounds3@physx@@QEBA_NAEBV12@I@Z
    ?intersects@PxBounds3@physx@@QEBA_NAEBV12@@Z
    ?inverseRT@PxMat44@physx@@QEBA?BV12@XZ
    ?inverseTransform@PxTransform@physx@@QEBA?AVPxPlane@2@AEBV32@@Z
    ?isBigEndian@PxFileBuf@general_PxIOStream2@physx@@SA_NXZ
    ?isEmpty@PxBounds3@physx@@QEBA_NXZ
    ?isFinite@PxBounds3@physx@@QEBA_NXZ
    ?isFinite@PxExtendedVec3@physx@@QEBA_NXZ
    ?isFinite@PxMat44@physx@@QEBA_NXZ
    ?isFinite@PxQuat@physx@@QEBA_NXZ
    ?isFinite@PxTransform@physx@@QEBA_NXZ
    ?isFinite@PxVec2@physx@@QEBA_NXZ
    ?isFinite@PxVec3@physx@@QEBA_NXZ
    ?isFinite@PxVec4@physx@@QEBA_NXZ
    ?isFinite@intrinsics@physx@@YA_NM@Z
    ?isFinite@intrinsics@physx@@YA_NN@Z
    ?isIdentity@PxMeshScale@physx@@QEBA_NXZ
    ?isIdentity@PxQuat@physx@@QEBA_NXZ
    ?isInside@PxBounds3@physx@@QEBA_NAEBV12@@Z
    ?isNormalized@PxVec2@physx@@QEBA_NXZ
    ?isNormalized@PxVec3@physx@@QEBA_NXZ
    ?isNormalized@PxVec4@physx@@QEBA_NXZ
    ?isOpen@PxFileBuf@general_PxIOStream2@physx@@QEBA_NXZ
    ?isSane@PxQuat@physx@@QEBA_NXZ
    ?isSane@PxTransform@physx@@QEBA_NXZ
    ?isSerializable@PxSerialization@physx@@SA_NAEAVPxCollection@2@AEAVPxSerializationRegistry@2@PEBV32@@Z
    ?isSoft@PxJointLimitParameters@physx@@QEBA_NXZ
    ?isUnit@PxQuat@physx@@QEBA_NXZ
    ?isValid@PxBVH33MidphaseDesc@physx@@QEBA_NXZ
    ?isValid@PxBVH34MidphaseDesc@physx@@QEBA_NXZ
    ?isValid@PxBVHStructureDesc@physx@@QEBA_NXZ
    ?isValid@PxBatchQueryDesc@physx@@QEBA_NXZ
    ?isValid@PxBounds3@physx@@QEBA_NXZ
    ?isValid@PxBoxGeometry@physx@@QEBA_NXZ
    ?isValid@PxCapsuleGeometry@physx@@QEBA_NXZ
    ?isValid@PxConvexMeshDesc@physx@@QEBA_NXZ
    ?isValid@PxConvexMeshGeometry@physx@@QEBA_NXZ
    ?isValid@PxD6JointDrive@physx@@QEBA_NXZ
    ?isValid@PxDefaultFileInputData@physx@@QEBA_NXZ
    ?isValid@PxGeometryQuery@physx@@SA_NAEBVPxGeometry@2@@Z
    ?isValid@PxHeightFieldDesc@physx@@QEBA_NXZ
    ?isValid@PxHeightFieldGeometry@physx@@QEBA_NXZ
    ?isValid@PxJointAngularLimitPair@physx@@QEBA_NXZ
    ?isValid@PxJointLimitCone@physx@@QEBA_NXZ
    ?isValid@PxJointLimitParameters@physx@@QEBA_NXZ
    ?isValid@PxJointLimitPyramid@physx@@QEBA_NXZ
    ?isValid@PxJointLinearLimit@physx@@QEBA_NXZ
    ?isValid@PxJointLinearLimitPair@physx@@QEBA_NXZ
    ?isValid@PxMidphaseDesc@physx@@QEBA_NXZ
    ?isValid@PxPlaneGeometry@physx@@QEBA_NXZ
    ?isValid@PxRepXObject@physx@@QEBA_NXZ
    ?isValid@PxSceneDesc@physx@@QEBA_NXZ
    ?isValid@PxSceneLimits@physx@@QEBA_NXZ
    ?isValid@PxSimpleTriangleMesh@physx@@QEBA_NXZ
    ?isValid@PxSphereGeometry@physx@@QEBA_NXZ
    ?isValid@PxTolerancesScale@physx@@QEBA_NXZ
    ?isValid@PxTransform@physx@@QEBA_NXZ
    ?isValid@PxTriangleMeshDesc@physx@@QEBA_NXZ
    ?isValid@PxTriangleMeshGeometry@physx@@QEBA_NXZ
    ?isValidForConvexMesh@PxMeshScale@physx@@QEBA_NXZ
    ?isValidForTriangleMesh@PxMeshScale@physx@@QEBA_NXZ
    ?isZero@PxExtendedVec3@physx@@QEBA_NXZ
    ?isZero@PxVec2@physx@@QEBA_NXZ
    ?isZero@PxVec3@physx@@QEBA_NXZ
    ?isZero@PxVec4@physx@@QEBA_NXZ
    ?linearSweepMultiple@PxRigidBodyExt@physx@@SAIAEAVPxRigidBody@2@AEAVPxScene@2@AEBVPxVec3@2@MV?$PxFlags@W4Enum@PxHitFlag@physx@@G@2@PEAUPxSweepHit@2@PEAIIAEAU72@AEAHAEA_NAEBUPxQueryFilterData@2@PEAVPxQueryFilterCallback@2@PEBUPxQueryCache@2@M@Z
    ?linearSweepSingle@PxRigidBodyExt@physx@@SA_NAEAVPxRigidBody@2@AEAVPxScene@2@AEBVPxVec3@2@MV?$PxFlags@W4Enum@PxHitFlag@physx@@G@2@AEAUPxSweepHit@2@AEAIAEBUPxQueryFilterData@2@PEAVPxQueryFilterCallback@2@PEBUPxQueryCache@2@M@Z
    ?magnitude@PxExtendedVec3@physx@@QEBANXZ
    ?magnitude@PxQuat@physx@@QEBAMXZ
    ?magnitude@PxVec2@physx@@QEBAMXZ
    ?magnitude@PxVec3@physx@@QEBAMXZ
    ?magnitude@PxVec4@physx@@QEBAMXZ
    ?magnitudeSquared@PxExtendedVec3@physx@@QEBANXZ
    ?magnitudeSquared@PxQuat@physx@@QEBAMXZ
    ?magnitudeSquared@PxVec2@physx@@QEBAMXZ
    ?magnitudeSquared@PxVec3@physx@@QEBAMXZ
    ?magnitudeSquared@PxVec4@physx@@QEBAMXZ
    ?maxElement@PxVec2@physx@@QEBAMXZ
    ?maxElement@PxVec3@physx@@QEBAMXZ
    ?maximum@PxExtendedVec3@physx@@QEAAXAEBU12@@Z
    ?maximum@PxVec2@physx@@QEBA?AV12@AEBV12@@Z
    ?maximum@PxVec3@physx@@QEBA?AV12@AEBV12@@Z
    ?maximum@PxVec4@physx@@QEBA?AV12@AEBV12@@Z
    ?memCopy@intrinsics@physx@@YAPEAXPEAXPEBXI@Z
    ?memMove@intrinsics@physx@@YAPEAXPEAXPEBXI@Z
    ?memSet@intrinsics@physx@@YAPEAXPEAXHI@Z
    ?memZero128@intrinsics@physx@@YAXPEAXI@Z
    ?memZero@intrinsics@physx@@YAPEAXPEAXI@Z
    ?minElement@PxVec2@physx@@QEBAMXZ
    ?minElement@PxVec3@physx@@QEBAMXZ
    ?minimum@PxExtendedVec3@physx@@QEAAXAEBU12@@Z
    ?minimum@PxVec2@physx@@QEBA?AV12@AEBV12@@Z
    ?minimum@PxVec3@physx@@QEBA?AV12@AEBV12@@Z
    ?minimum@PxVec4@physx@@QEBA?AV12@AEBV12@@Z
    ?multiply@PxVec2@physx@@QEBA?AV12@AEBV12@@Z
    ?multiply@PxVec3@physx@@QEBA?AV12@AEBV12@@Z
    ?multiply@PxVec4@physx@@QEBA?AV12@AEBV12@@Z
    ?nextContact@PxContactStreamIterator@physx@@QEAAXXZ
    ?nextItemSet@PxContactPairExtraDataIterator@physx@@QEAA_NXZ
    ?nextPatch@PxContactStreamIterator@physx@@QEAAXXZ
    ?normal@PxTriangle@physx@@QEBAXAEAVPxVec3@2@@Z
    ?normalize@PxExtendedVec3@physx@@QEAANXZ
    ?normalize@PxPlane@physx@@QEAAXXZ
    ?normalize@PxQuat@physx@@QEAAMXZ
    ?normalize@PxVec2@physx@@QEAAMXZ
    ?normalize@PxVec3@physx@@QEAAMXZ
    ?normalize@PxVec4@physx@@QEAAMXZ
    ?normalizeFast@PxVec3@physx@@QEAAMXZ
    ?normalizeSafe@PxVec3@physx@@QEAAMXZ
    ?overlap@PxGeometryQuery@physx@@SA_NAEBVPxGeometry@2@AEBVPxTransform@2@01@Z
    ?overlap@PxShapeExt@physx@@SA_NAEBVPxShape@2@AEBVPxRigidActor@2@AEBVPxGeometry@2@AEBVPxTransform@2@@Z
    ?overlapAny@PxSceneQueryExt@physx@@SA_NAEBVPxScene@2@AEBVPxGeometry@2@AEBVPxTransform@2@AEAUPxOverlapHit@2@AEBUPxQueryFilterData@2@PEAVPxQueryFilterCallback@2@@Z
    ?overlapMultiple@PxSceneQueryExt@physx@@SAHAEBVPxScene@2@AEBVPxGeometry@2@AEBVPxTransform@2@PEAUPxOverlapHit@2@IAEBUPxQueryFilterData@2@PEAVPxQueryFilterCallback@2@@Z
    ?plane@PxGeometryHolder@physx@@QEAAAEAVPxPlaneGeometry@2@XZ
    ?plane@PxGeometryHolder@physx@@QEBAAEBVPxPlaneGeometry@2@XZ
    ?platformAlignedAlloc@physx@@YAPEAX_K@Z
    ?platformAlignedFree@physx@@YAXPEAX@Z
    ?pointDistance@PxGeometryQuery@physx@@SAMAEBVPxVec3@2@AEBVPxGeometry@2@AEBVPxTransform@2@PEAV32@@Z
    ?pointFromUV@PxTriangle@physx@@QEBA?AVPxVec3@2@MM@Z
    ?pointInPlane@PxPlane@physx@@QEBA?AVPxVec3@2@XZ
    ?poseExtent@PxBounds3@physx@@SA?AV12@AEBVPxTransform@2@AEBVPxVec3@2@@Z
    ?project@PxPlane@physx@@QEBA?AVPxVec3@2@AEBV32@@Z
    ?projectVelocity@PxSolverBodyData@physx@@QEBAMAEBVPxVec3@2@0@Z
    ?projectVelocity@PxTGSSolverBodyData@physx@@QEBAMAEBVPxVec3@2@0@Z
    ?projectVelocity@PxTGSSolverBodyVel@physx@@QEBAMAEBVPxVec3@2@0@Z
    ?raycast@PxGeometryQuery@physx@@SAIAEBVPxVec3@2@0AEBVPxGeometry@2@AEBVPxTransform@2@MV?$PxFlags@W4Enum@PxHitFlag@physx@@G@2@IPEIAUPxRaycastHit@2@@Z
    ?raycast@PxShapeExt@physx@@SAIAEBVPxShape@2@AEBVPxRigidActor@2@AEBVPxVec3@2@2MV?$PxFlags@W4Enum@PxHitFlag@physx@@G@2@IPEAUPxRaycastHit@2@@Z
    ?raycastAny@PxSceneQueryExt@physx@@SA_NAEBVPxScene@2@AEBVPxVec3@2@1MAEAUPxQueryHit@2@AEBUPxQueryFilterData@2@PEAVPxQueryFilterCallback@2@PEBUPxQueryCache@2@@Z
    ?raycastMultiple@PxSceneQueryExt@physx@@SAHAEBVPxScene@2@AEBVPxVec3@2@1MV?$PxFlags@W4Enum@PxHitFlag@physx@@G@2@PEAUPxRaycastHit@2@IAEA_NAEBUPxQueryFilterData@2@PEAVPxQueryFilterCallback@2@PEBUPxQueryCache@2@@Z
    ?raycastSingle@PxSceneQueryExt@physx@@SA_NAEBVPxScene@2@AEBVPxVec3@2@1MV?$PxFlags@W4Enum@PxHitFlag@physx@@G@2@AEAUPxRaycastHit@2@AEBUPxQueryFilterData@2@PEAVPxQueryFilterCallback@2@PEBUPxQueryCache@2@@Z
    ?readByte@PxFileBuf@general_PxIOStream2@physx@@QEAAEXZ
    ?readDouble@PxFileBuf@general_PxIOStream2@physx@@QEAANXZ
    ?readDword@PxFileBuf@general_PxIOStream2@physx@@QEAAIXZ
    ?readFloat@PxFileBuf@general_PxIOStream2@physx@@QEAAMXZ
    ?readName@PxDeserializationContext@physx@@QEAAXAEAPEBD@Z
    ?readWord@PxFileBuf@general_PxIOStream2@physx@@QEAAGXZ
    ?recip@intrinsics@physx@@YAMM@Z
    ?recipFast@intrinsics@physx@@YAMM@Z
    ?recipSqrt@intrinsics@physx@@YAMM@Z
    ?recipSqrtFast@intrinsics@physx@@YAMM@Z
    ?registerRaycastCCDObject@RaycastCCDManager@physx@@QEAA_NPEAVPxRigidDynamic@2@PEAVPxShape@2@@Z
    ?release@PxFileBuf@general_PxIOStream2@physx@@QEAAXXZ
    ?release@PxVehicleDrivableSurfaceToTireFrictionPairs@physx@@QEAAXXZ
    ?releaseObjects@PxCollectionExt@physx@@SAXAEAVPxCollection@2@_N@Z
    ?remove@PxCollectionExt@physx@@SAXAEAVPxCollection@2@GPEAV32@@Z
    ?reset@ContactBuffer@Gu@physx@@QEAAXXZ
    ?reset@PxCache@physx@@QEAAXXZ
    ?resolveReferences@PxVehicleWheels@physx@@QEAAXAEAVPxDeserializationContext@2@@Z
    ?rotate@PxMat44@physx@@QEBA?BVPxVec3@2@AEBV32@@Z
    ?rotate@PxMat44@physx@@QEBA?BVPxVec4@2@AEBV32@@Z
    ?rotate@PxQuat@physx@@QEBA?BVPxVec3@2@AEBV32@@Z
    ?rotate@PxTransform@physx@@QEBA?AVPxVec3@2@AEBV32@@Z
    ?rotateInertia@PxMassProperties@physx@@SA?AVPxMat33@2@AEBV32@AEBVPxQuat@2@@Z
    ?rotateInv@PxQuat@physx@@QEBA?BVPxVec3@2@AEBV32@@Z
    ?rotateInv@PxTransform@physx@@QEBA?AVPxVec3@2@AEBV32@@Z
    ?scale@PxMat44@physx@@QEAAXAEBVPxVec4@2@@Z
    ?scaleFast@PxBounds3@physx@@QEAAXM@Z
    ?scaleInertia@PxMassProperties@physx@@SA?AVPxMat33@2@AEBV32@AEBVPxQuat@2@AEBVPxVec3@2@@Z
    ?scaleSafe@PxBounds3@physx@@QEAAXM@Z
    ?selectMax@intrinsics@physx@@YAMMM@Z
    ?selectMin@intrinsics@physx@@YAMMM@Z
    ?serializeCollectionToBinary@PxSerialization@physx@@SA_NAEAVPxOutputStream@2@AEAVPxCollection@2@AEAVPxSerializationRegistry@2@PEBV42@_N@Z
    ?serializeCollectionToBinaryDeterministic@PxSerialization@physx@@SA_NAEAVPxOutputStream@2@AEAVPxCollection@2@AEAVPxSerializationRegistry@2@PEBV42@_N@Z
    ?serializeCollectionToXml@PxSerialization@physx@@SA_NAEAVPxOutputStream@2@AEAVPxCollection@2@AEAVPxSerializationRegistry@2@PEAVPxCooking@2@PEBV42@PEAUPxXmlMiscParameter@12@@Z
    ?set@PxExtendedVec3@physx@@QEAAXNNN@Z
    ?setAckermannGeometryData@PxVehicleDriveSimData4W@physx@@QEAAXAEBVPxVehicleAckermannGeometryData@2@@Z
    ?setAnalogAccel@PxVehicleDrive4WRawInputData@physx@@QEAAXM@Z
    ?setAnalogAccel@PxVehicleDriveTankRawInputData@physx@@QEAAXM@Z
    ?setAnalogBrake@PxVehicleDrive4WRawInputData@physx@@QEAAXM@Z
    ?setAnalogHandbrake@PxVehicleDrive4WRawInputData@physx@@QEAAXM@Z
    ?setAnalogInput@PxVehicleDriveDynData@physx@@QEAAXIM@Z
    ?setAnalogLeftBrake@PxVehicleDriveTankRawInputData@physx@@QEAAXM@Z
    ?setAnalogLeftThrust@PxVehicleDriveTankRawInputData@physx@@QEAAXM@Z
    ?setAnalogRightBrake@PxVehicleDriveTankRawInputData@physx@@QEAAXM@Z
    ?setAnalogRightThrust@PxVehicleDriveTankRawInputData@physx@@QEAAXM@Z
    ?setAnalogSteer@PxVehicleDrive4WRawInputData@physx@@QEAAXM@Z
    ?setAntiRollBarData@PxVehicleWheelsSimData@physx@@QEAAXIAEBVPxVehicleAntiRollBarData@2@@Z
    ?setAutoBoxData@PxVehicleDriveSimData@physx@@QEAAXAEBVPxVehicleAutoBoxData@2@@Z
    ?setAutoBoxSwitchTime@PxVehicleDriveDynData@physx@@QEAAXM@Z
    ?setBaseFlag@PxBase@physx@@QEAAXW4Enum@PxBaseFlag@2@_N@Z
    ?setBaseFlags@PxBase@physx@@QEAAXV?$PxFlags@W4Enum@PxBaseFlag@physx@@G@2@@Z
    ?setBrakeTorque@PxVehicleNoDrive@physx@@QEAAXIM@Z
    ?setChassisMass@PxVehicleWheelsSimData@physx@@QEAAXM@Z
    ?setClutchData@PxVehicleDriveSimData@physx@@QEAAXAEBVPxVehicleClutchData@2@@Z
    ?setContextId@PxBaseTask@physx@@QEAAX_K@Z
    ?setContinuation@PxLightCpuTask@physx@@QEAAXAEAVPxTaskManager@2@PEAVPxBaseTask@2@@Z
    ?setContinuation@PxLightCpuTask@physx@@QEAAXPEAVPxBaseTask@2@@Z
    ?setCurrentGear@PxVehicleDriveDynData@physx@@QEAAXI@Z
    ?setDiffData@PxVehicleDriveSimData4W@physx@@QEAAXAEBVPxVehicleDifferential4WData@2@@Z
    ?setDiffData@PxVehicleDriveSimDataNW@physx@@QEAAXAEBVPxVehicleDifferentialNWData@2@@Z
    ?setDigitalAccel@PxVehicleDrive4WRawInputData@physx@@QEAAX_N@Z
    ?setDigitalAccel@PxVehicleDriveTankRawInputData@physx@@QEAAX_N@Z
    ?setDigitalBrake@PxVehicleDrive4WRawInputData@physx@@QEAAX_N@Z
    ?setDigitalHandbrake@PxVehicleDrive4WRawInputData@physx@@QEAAX_N@Z
    ?setDigitalLeftBrake@PxVehicleDriveTankRawInputData@physx@@QEAAX_N@Z
    ?setDigitalLeftThrust@PxVehicleDriveTankRawInputData@physx@@QEAAX_N@Z
    ?setDigitalRightBrake@PxVehicleDriveTankRawInputData@physx@@QEAAX_N@Z
    ?setDigitalRightThrust@PxVehicleDriveTankRawInputData@physx@@QEAAX_N@Z
    ?setDigitalSteerLeft@PxVehicleDrive4WRawInputData@physx@@QEAAX_N@Z
    ?setDigitalSteerRight@PxVehicleDrive4WRawInputData@physx@@QEAAX_N@Z
    ?setDownRatios@PxVehicleAutoBoxData@physx@@QEAAXW4Enum@PxVehicleGearsData@2@M@Z
    ?setDriveModel@PxVehicleDriveTank@physx@@QEAAXW4Enum@PxVehicleDriveTankControlModel@2@@Z
    ?setDriveTorque@PxVehicleNoDrive@physx@@QEAAXIM@Z
    ?setDrivenWheel@PxVehicleDifferentialNWData@physx@@QEAAXI_N@Z
    ?setDrivenWheelStatus@PxVehicleDifferentialNWData@physx@@QEAAXI@Z
    ?setDynamicFriction@PxContactSet@physx@@QEAAXIM@Z
    ?setEmpty@PxBounds3@physx@@QEAAXXZ
    ?setEndianMode@PxFileBuf@general_PxIOStream2@physx@@QEAAXW4EndianMode@123@@Z
    ?setEngineData@PxVehicleDriveSimData@physx@@QEAAXAEBVPxVehicleEngineData@2@@Z
    ?setEngineRotationSpeed@PxVehicleDriveDynData@physx@@QEAAXM@Z
    ?setFlags@PxVehicleWheelsSimData@physx@@QEAAXV?$PxFlags@W4Enum@PxVehicleWheelsSimFlag@physx@@I@2@@Z
    ?setGearChange@PxVehicleDriveDynData@physx@@QEAAXI@Z
    ?setGearDown@PxVehicleDrive4WRawInputData@physx@@QEAAX_N@Z
    ?setGearDown@PxVehicleDriveDynData@physx@@QEAAX_N@Z
    ?setGearDown@PxVehicleDriveTankRawInputData@physx@@QEAAX_N@Z
    ?setGearRatio@PxVehicleGearsData@physx@@QEAAXW4Enum@12@M@Z
    ?setGearSwitchTime@PxVehicleDriveDynData@physx@@QEAAXM@Z
    ?setGearUp@PxVehicleDrive4WRawInputData@physx@@QEAAX_N@Z
    ?setGearUp@PxVehicleDriveDynData@physx@@QEAAX_N@Z
    ?setGearUp@PxVehicleDriveTankRawInputData@physx@@QEAAX_N@Z
    ?setGearsData@PxVehicleDriveSimData@physx@@QEAAXAEBVPxVehicleGearsData@2@@Z
    ?setHighForwardSpeedSubStepCount@PxVehicleWheelsSimData@physx@@QEAAXI@Z
    ?setInvInertiaScale0@PxContactSet@physx@@QEAAXM@Z
    ?setInvInertiaScale1@PxContactSet@physx@@QEAAXM@Z
    ?setInvMassScale0@PxContactSet@physx@@QEAAXM@Z
    ?setInvMassScale1@PxContactSet@physx@@QEAAXM@Z
    ?setLatency@PxVehicleAutoBoxData@physx@@QEAAXM@Z
    ?setLinearLimit@PxD6Joint@physx@@QEAAXAEBVPxJointLinearLimit@2@@Z
    ?setLowForwardSpeedSubStepCount@PxVehicleWheelsSimData@physx@@QEAAXI@Z
    ?setMassAndPreserveNaturalFrequency@PxVehicleSuspensionData@physx@@QEAAXM@Z
    ?setMassAndUpdateInertia@PxRigidBodyExt@physx@@SA_NAEAVPxRigidBody@2@MPEBVPxVec3@2@_N@Z
    ?setMassAndUpdateInertia@PxRigidBodyExt@physx@@SA_NAEAVPxRigidBody@2@PEBMIPEBVPxVec3@2@_N@Z
    ?setMaxImpulse@PxContactSet@physx@@QEAAXIM@Z
    ?setMaximal@PxBounds3@physx@@QEAAXXZ
    ?setMinLongSlipDenominator@PxVehicleWheelsSimData@physx@@QEAAXM@Z
    ?setMinusInfinity@PxExtendedVec3@physx@@QEAAXXZ
    ?setNormal@PxContactSet@physx@@QEAAXIAEBVPxVec3@2@@Z
    ?setPlusInfinity@PxExtendedVec3@physx@@QEAAXXZ
    ?setPoint@PxContactSet@physx@@QEAAXIAEBVPxVec3@2@@Z
    ?setPosition@PxMat44@physx@@QEAAXAEBVPxVec3@2@@Z
    ?setRestitution@PxContactSet@physx@@QEAAXIM@Z
    ?setSceneQueryFilterData@PxVehicleWheelsSimData@physx@@QEAAXIAEBUPxFilterData@2@@Z
    ?setSeparation@PxContactSet@physx@@QEAAXIM@Z
    ?setStaticFriction@PxContactSet@physx@@QEAAXIM@Z
    ?setSteerAngle@PxVehicleNoDrive@physx@@QEAAXIM@Z
    ?setSubStepCount@PxVehicleWheelsSimData@physx@@QEAAXMII@Z
    ?setSuspForceAppPointOffset@PxVehicleWheelsSimData@physx@@QEAAXIAEBVPxVec3@2@@Z
    ?setSuspTravelDirection@PxVehicleWheelsSimData@physx@@QEAAXIAEBVPxVec3@2@@Z
    ?setSuspensionData@PxVehicleWheelsSimData@physx@@QEAAXIAEBVPxVehicleSuspensionData@2@@Z
    ?setTargetGear@PxVehicleDriveDynData@physx@@QEAAXI@Z
    ?setTargetVelocity@PxContactSet@physx@@QEAAXIAEBVPxVec3@2@@Z
    ?setTessFlag@PxHeightFieldSample@physx@@QEAAXXZ
    ?setThresholdLongSpeed@PxVehicleWheelsSimData@physx@@QEAAXM@Z
    ?setTireData@PxVehicleWheelsSimData@physx@@QEAAXIAEBVPxVehicleTireData@2@@Z
    ?setTireForceAppPointOffset@PxVehicleWheelsSimData@physx@@QEAAXIAEBVPxVec3@2@@Z
    ?setTireForceShaderData@PxVehicleWheelsDynData@physx@@QEAAXIPEBX@Z
    ?setTireForceShaderFunction@PxVehicleWheelsDynData@physx@@QEAAXP6AXPEBXMMMMMMMMMMMMAEAM111@Z@Z
    ?setTireLoadFilterData@PxVehicleWheelsSimData@physx@@QEAAXAEBVPxVehicleTireLoadFilterData@2@@Z
    ?setToDefault@PxBVH33MidphaseDesc@physx@@QEAAXXZ
    ?setToDefault@PxBVH34MidphaseDesc@physx@@QEAAXXZ
    ?setToDefault@PxBVHStructureDesc@physx@@QEAAXXZ
    ?setToDefault@PxConvexMeshDesc@physx@@QEAAXXZ
    ?setToDefault@PxFilterData@physx@@QEAAXXZ
    ?setToDefault@PxHeightFieldDesc@physx@@QEAAXXZ
    ?setToDefault@PxMidphaseDesc@physx@@QEAAXW4Enum@PxMeshMidPhase@2@@Z
    ?setToDefault@PxSceneDesc@physx@@QEAAXAEBVPxTolerancesScale@2@@Z
    ?setToDefault@PxSceneLimits@physx@@QEAAXXZ
    ?setToDefault@PxSimpleTriangleMesh@physx@@QEAAXXZ
    ?setToDefault@PxTriangleMeshDesc@physx@@QEAAXXZ
    ?setToRestState@PxVehicleDrive4W@physx@@QEAAXXZ
    ?setToRestState@PxVehicleDriveDynData@physx@@QEAAXXZ
    ?setToRestState@PxVehicleDriveNW@physx@@QEAAXXZ
    ?setToRestState@PxVehicleDriveTank@physx@@QEAAXXZ
    ?setToRestState@PxVehicleNoDrive@physx@@QEAAXXZ
    ?setToRestState@PxVehicleWheelsDynData@physx@@QEAAXXZ
    ?setTypePairFriction@PxVehicleDrivableSurfaceToTireFrictionPairs@physx@@QEAAXIIM@Z
    ?setUpRatios@PxVehicleAutoBoxData@physx@@QEAAXW4Enum@PxVehicleGearsData@2@M@Z
    ?setUseAutoGears@PxVehicleDriveDynData@physx@@QEAAX_N@Z
    ?setUserData@PxVehicleWheelsDynData@physx@@QEAAXIPEAX@Z
    ?setWheelCentreOffset@PxVehicleWheelsSimData@physx@@QEAAXIAEBVPxVec3@2@@Z
    ?setWheelData@PxVehicleWheelsSimData@physx@@QEAAXIAEBVPxVehicleWheelData@2@@Z
    ?setWheelEnabledState@PxVehicleWheelsSimData@physx@@QEAAXI_N@Z
    ?setWheelRotationAngle@PxVehicleWheelsDynData@physx@@QEAAXIM@Z
    ?setWheelRotationSpeed@PxVehicleWheelsDynData@physx@@QEAAXIM@Z
    ?setWheelShapeMapping@PxVehicleWheelsSimData@physx@@QEAAXIH@Z
    ?setZero@PxVec4@physx@@QEAAXXZ
    ?setup@PxVehicleDrivableSurfaceToTireFrictionPairs@physx@@QEAAXIIPEAPEBVPxMaterial@2@PEBUPxVehicleDrivableSurfaceType@2@@Z
    ?setup@PxVehicleDrive4W@physx@@QEAAXPEAVPxPhysics@2@PEAVPxRigidDynamic@2@AEBVPxVehicleWheelsSimData@2@AEBVPxVehicleDriveSimData4W@2@I@Z
    ?setup@PxVehicleDriveNW@physx@@QEAAXPEAVPxPhysics@2@PEAVPxRigidDynamic@2@AEBVPxVehicleWheelsSimData@2@AEBVPxVehicleDriveSimDataNW@2@I@Z
    ?setup@PxVehicleDriveTank@physx@@QEAAXPEAVPxPhysics@2@PEAVPxRigidDynamic@2@AEBVPxVehicleWheelsSimData@2@AEBVPxVehicleDriveSimData@2@I@Z
    ?setup@PxVehicleGraph@physx@@QEAAXAEBVPxVehicleGraphDesc@2@W4Enum@PxVehicleGraphType@2@@Z
    ?setup@PxVehicleNoDrive@physx@@QEAAXPEAVPxPhysics@2@PEAVPxRigidDynamic@2@AEBVPxVehicleWheelsSimData@2@@Z
    ?setup@PxVehicleTelemetryData@physx@@QEAAXMMMMQEBM0AEBVPxVec3@2@11@Z
    ?sign@intrinsics@physx@@YAMM@Z
    ?sin@intrinsics@physx@@YAMM@Z
    ?size@PxContactSet@physx@@QEBAIXZ
    ?sphere@PxGeometryHolder@physx@@QEAAAEAVPxSphereGeometry@2@XZ
    ?sphere@PxGeometryHolder@physx@@QEBAAEBVPxSphereGeometry@2@XZ
    ?sqrt@intrinsics@physx@@YAMM@Z
    ?startAfter@PxTask@physx@@QEAAXI@Z
    ?startGearChange@PxVehicleDriveDynData@physx@@QEAAXI@Z
    ?storeAny@PxGeometryHolder@physx@@QEAAXAEBVPxGeometry@2@@Z
    ?storeByte@PxFileBuf@general_PxIOStream2@physx@@QEAAXE@Z
    ?storeDouble@PxFileBuf@general_PxIOStream2@physx@@QEAAXN@Z
    ?storeDword@PxFileBuf@general_PxIOStream2@physx@@QEAAXI@Z
    ?storeFloat@PxFileBuf@general_PxIOStream2@physx@@QEAAXM@Z
    ?storeWord@PxFileBuf@general_PxIOStream2@physx@@QEAAXG@Z
    ?sum@PxMassProperties@physx@@SA?AV12@PEBV12@PEBVPxTransform@2@I@Z
    ?swap2Bytes@PxFileBuf@general_PxIOStream2@physx@@QEBAXPEAX@Z
    ?swap4Bytes@PxFileBuf@general_PxIOStream2@physx@@QEBAXPEAX@Z
    ?swap8Bytes@PxFileBuf@general_PxIOStream2@physx@@QEBAXPEAX@Z
    ?sweep@PxGeometryQuery@physx@@SA_NAEBVPxVec3@2@MAEBVPxGeometry@2@AEBVPxTransform@2@12AEAUPxSweepHit@2@V?$PxFlags@W4Enum@PxHitFlag@physx@@G@2@M@Z
    ?sweep@PxMeshQuery@physx@@SA_NAEBVPxVec3@2@MAEBVPxGeometry@2@AEBVPxTransform@2@IPEBVPxTriangle@2@AEAUPxSweepHit@2@V?$PxFlags@W4Enum@PxHitFlag@physx@@G@2@PEBIM_N@Z
    ?sweep@PxShapeExt@physx@@SA_NAEBVPxShape@2@AEBVPxRigidActor@2@AEBVPxVec3@2@MAEBVPxGeometry@2@AEBVPxTransform@2@AEAUPxSweepHit@2@V?$PxFlags@W4Enum@PxHitFlag@physx@@G@2@@Z
    ?sweepAny@PxSceneQueryExt@physx@@SA_NAEBVPxScene@2@AEBVPxGeometry@2@AEBVPxTransform@2@AEBVPxVec3@2@MV?$PxFlags@W4Enum@PxHitFlag@physx@@G@2@AEAUPxQueryHit@2@AEBUPxQueryFilterData@2@PEAVPxQueryFilterCallback@2@PEBUPxQueryCache@2@M@Z
    ?sweepMultiple@PxSceneQueryExt@physx@@SAHAEBVPxScene@2@AEBVPxGeometry@2@AEBVPxTransform@2@AEBVPxVec3@2@MV?$PxFlags@W4Enum@PxHitFlag@physx@@G@2@PEAUPxSweepHit@2@IAEA_NAEBUPxQueryFilterData@2@PEAVPxQueryFilterCallback@2@PEBUPxQueryCache@2@M@Z
    ?sweepSingle@PxSceneQueryExt@physx@@SA_NAEBVPxScene@2@AEBVPxGeometry@2@AEBVPxTransform@2@AEBVPxVec3@2@MV?$PxFlags@W4Enum@PxHitFlag@physx@@G@2@AEAUPxSweepHit@2@AEBUPxQueryFilterData@2@PEAVPxQueryFilterCallback@2@PEBUPxQueryCache@2@M@Z
    ?tessFlag@PxHeightFieldSample@physx@@QEBAEXZ
    ?toMat33@PxMeshScale@physx@@QEBA?AVPxMat33@2@XZ
    ?toRadiansAndUnitAxis@PxQuat@physx@@QEBAXAEAMAEAVPxVec3@2@@Z
    ?toVec3@physx@@YA?AVPxVec3@1@AEBUPxExtendedVec3@1@@Z
    ?toggleAutoGears@PxVehicleDriveDynData@physx@@QEAAXXZ
    ?transform@PxMat33@physx@@QEBA?BVPxVec3@2@AEBV32@@Z
    ?transform@PxMat44@physx@@QEBA?BVPxVec3@2@AEBV32@@Z
    ?transform@PxMat44@physx@@QEBA?BVPxVec4@2@AEBV32@@Z
    ?transform@PxMeshScale@physx@@QEBA?AVPxVec3@2@AEBV32@@Z
    ?transform@PxTransform@physx@@QEBA?AV12@AEBV12@@Z
    ?transform@PxTransform@physx@@QEBA?AVPxPlane@2@AEBV32@@Z
    ?transform@PxTransform@physx@@QEBA?AVPxVec3@2@AEBV32@@Z
    ?transformFast@PxBounds3@physx@@SA?AV12@AEBVPxMat33@2@AEBV12@@Z
    ?transformFast@PxBounds3@physx@@SA?AV12@AEBVPxTransform@2@AEBV12@@Z
    ?transformInv@PxTransform@physx@@QEBA?AV12@AEBV12@@Z
    ?transformInv@PxTransform@physx@@QEBA?AVPxVec3@2@AEBV32@@Z
    ?transformSafe@PxBounds3@physx@@SA?AV12@AEBVPxMat33@2@AEBV12@@Z
    ?transformSafe@PxBounds3@physx@@SA?AV12@AEBVPxTransform@2@AEBV12@@Z
    ?transformTranspose@PxMat33@physx@@QEBA?BVPxVec3@2@AEBV32@@Z
    ?translate@PxMassProperties@physx@@QEAAXAEBVPxVec3@2@@Z
    ?translateInertia@PxMassProperties@physx@@SA?AVPxMat33@2@AEBV32@MAEBVPxVec3@2@@Z
    ?triangleMesh@PxGeometryHolder@physx@@QEAAAEAVPxTriangleMeshGeometry@2@XZ
    ?triangleMesh@PxGeometryHolder@physx@@QEBAAEBVPxTriangleMeshGeometry@2@XZ
    ?updateMassAndInertia@PxRigidBodyExt@physx@@SA_NAEAVPxRigidBody@2@MPEBVPxVec3@2@_N@Z
    ?updateMassAndInertia@PxRigidBodyExt@physx@@SA_NAEAVPxRigidBody@2@PEBMIPEBVPxVec3@2@_N@Z
    PxAddArticulationLink
    PxAddCollectionToPhysics
    PxApplyArticulationCache
    PxBatchConstraints
    PxBatchConstraintsTGS
    PxBuildSmoothNormals
    PxCloseExtensions
    PxCloseVehicleSDK
    PxComputeUnconstrainedVelocities
    PxComputeUnconstrainedVelocitiesTGS
    PxConstructSolverBodies
    PxConstructSolverBodiesTGS
    PxConstructStaticSolverBody
    PxConstructStaticSolverBodyTGS
    PxCopyInternalStateToArticulationCache
    PxCreateArticulationCache
    PxCreateBasePhysics
    PxCreateContactConstraints
    PxCreateContactConstraintsTGS
    PxCreateControllerManager
    PxCreateCooking
    PxCreateCudaContextManager
    PxCreateFeatherstoneArticulation
    PxCreateFoundation
    PxCreateJointConstraints
    PxCreateJointConstraintsTGS
    PxCreateJointConstraintsWithImmediateShaders
    PxCreateJointConstraintsWithImmediateShadersTGS
    PxCreateJointConstraintsWithShaders
    PxCreateJointConstraintsWithShadersTGS
    PxCreatePvd
    PxDefaultPvdFileTransportCreate
    PxDefaultPvdSocketTransportCreate
    PxGenerateContacts
    PxGetAllLinkData
    PxGetFoundation
    PxGetJointData
    PxGetLinkArticulation
    PxGetLinkData
    PxGetLinkIndex
    PxGetMutableLinkData
    PxGetPhysics
    PxGetPhysicsBinaryMetaData
    PxGetProfilerCallback
    PxGetSuggestedCudaDeviceOrdinal
    PxInitExtensions
    PxInitVehicleSDK
    PxIntegrateSolverBodies
    PxIntegrateSolverBodiesTGS
    PxRegisterArticulations
    PxRegisterArticulationsReducedCoordinate
    PxRegisterHeightFields
    PxRegisterImmediateArticulations
    PxRegisterPhysicsSerializers
    PxReleaseArticulation
    PxReleaseArticulationCache
    PxSetJointData
    PxSetJointGlobalFrame
    PxSetMutableLinkData
    PxSetPhysXCommonDelayLoadHook
    PxSetPhysXCookingDelayLoadHook
    PxSetPhysXDelayLoadHook
    PxSetPhysXGpuLoadHook
    PxSetProfilerCallback
    PxSolveConstraints
    PxSolveConstraintsTGS
    PxUnregisterPhysicsSerializers
    PxUpdateArticulationBodies
    PxUpdateArticulationBodiesTGS
